
AtmelStart.elf:     file format elf32-littlearm

Sections:
Idx Name          Size      VMA       LMA       File off  Algn
  0 .text         000021a4  00400000  00400000  00010000  2**2
                  CONTENTS, ALLOC, LOAD, READONLY, CODE
  1 .relocate     00000140  20400000  004021a4  00020000  2**2
                  CONTENTS, ALLOC, LOAD, DATA
  2 .bss          000003b4  20400140  004022e4  00020140  2**2
                  ALLOC
  3 .heap         00000204  204004f4  00402698  00020140  2**0
                  ALLOC
  4 .stack        00000400  204006f8  0040289c  00020140  2**0
                  ALLOC
  5 .ARM.attributes 0000002e  00000000  00000000  00020140  2**0
                  CONTENTS, READONLY
  6 .comment      0000001d  00000000  00000000  0002016e  2**0
                  CONTENTS, READONLY
  7 .debug_info   000150c9  00000000  00000000  0002018b  2**0
                  CONTENTS, READONLY, DEBUGGING
  8 .debug_abbrev 00003104  00000000  00000000  00035254  2**0
                  CONTENTS, READONLY, DEBUGGING
  9 .debug_aranges 00000608  00000000  00000000  00038358  2**0
                  CONTENTS, READONLY, DEBUGGING
 10 .debug_ranges 000015f8  00000000  00000000  00038960  2**0
                  CONTENTS, READONLY, DEBUGGING
 11 .debug_macro  00008ff9  00000000  00000000  00039f58  2**0
                  CONTENTS, READONLY, DEBUGGING
 12 .debug_line   0000f737  00000000  00000000  00042f51  2**0
                  CONTENTS, READONLY, DEBUGGING
 13 .debug_str    00136f31  00000000  00000000  00052688  2**0
                  CONTENTS, READONLY, DEBUGGING
 14 .debug_frame  00000f2c  00000000  00000000  001895bc  2**2
                  CONTENTS, READONLY, DEBUGGING
 15 .debug_loc    00008192  00000000  00000000  0018a4e8  2**0
                  CONTENTS, READONLY, DEBUGGING

Disassembly of section .text:

00400000 <exception_table>:
  400000:	f8 0a 40 20 bd 04 40 00 b9 04 40 00 b9 04 40 00     ..@ ..@...@...@.
  400010:	b9 04 40 00 b9 04 40 00 b9 04 40 00 00 00 00 00     ..@...@...@.....
	...
  40002c:	b9 04 40 00 b9 04 40 00 00 00 00 00 b9 04 40 00     ..@...@.......@.
  40003c:	b9 04 40 00 b9 04 40 00 b9 04 40 00 b9 04 40 00     ..@...@...@...@.
  40004c:	b9 04 40 00 b9 04 40 00 b9 04 40 00 b9 04 40 00     ..@...@...@...@.
  40005c:	b9 04 40 00 b9 04 40 00 00 00 00 00 b9 04 40 00     ..@...@.......@.
  40006c:	b9 04 40 00 00 00 00 00 b9 04 40 00 b9 04 40 00     ..@.......@...@.
  40007c:	b9 04 40 00 b9 04 40 00 00 00 00 00 b9 04 40 00     ..@...@.......@.
  40008c:	b9 04 40 00 b9 04 40 00 b9 04 40 00 b9 04 40 00     ..@...@...@...@.
  40009c:	b9 04 40 00 b9 04 40 00 b9 04 40 00 b9 04 40 00     ..@...@...@...@.
  4000ac:	b9 04 40 00 b9 04 40 00 b9 04 40 00 b9 04 40 00     ..@...@...@...@.
  4000bc:	b9 04 40 00 b9 04 40 00 b9 04 40 00 41 07 40 00     ..@...@...@.A.@.
  4000cc:	e9 12 40 00 b9 04 40 00 b9 04 40 00 b9 04 40 00     ..@...@...@...@.
  4000dc:	b9 04 40 00 b9 04 40 00 b9 04 40 00 00 00 00 00     ..@...@...@.....
  4000ec:	b9 04 40 00 b9 04 40 00 b9 04 40 00 b9 04 40 00     ..@...@...@...@.
  4000fc:	b9 04 40 00 b9 04 40 00 b9 04 40 00 b9 04 40 00     ..@...@...@...@.
  40010c:	b9 04 40 00 b9 04 40 00 00 00 00 00 00 00 00 00     ..@...@.........
  40011c:	00 00 00 00 b9 04 40 00 b9 04 40 00 b9 04 40 00     ......@...@...@.
  40012c:	b9 04 40 00 b9 04 40 00 b9 04 40 00 00 00 00 00     ..@...@...@.....
  40013c:	b9 04 40 00 b9 04 40 00 b9 04 40 00 b9 04 40 00     ..@...@...@...@.
  40014c:	b9 04 40 00 b9 04 40 00 b9 04 40 00 00 00 00 00     ..@...@...@.....
  40015c:	b9 04 40 00 b9 04 40 00 b9 04 40 00                 ..@...@...@.

00400168 <__do_global_dtors_aux>:
  400168:	b510      	push	{r4, lr}
  40016a:	4c05      	ldr	r4, [pc, #20]	; (400180 <__do_global_dtors_aux+0x18>)
  40016c:	7822      	ldrb	r2, [r4, #0]
  40016e:	b932      	cbnz	r2, 40017e <__do_global_dtors_aux+0x16>
  400170:	4b04      	ldr	r3, [pc, #16]	; (400184 <__do_global_dtors_aux+0x1c>)
  400172:	b113      	cbz	r3, 40017a <__do_global_dtors_aux+0x12>
  400174:	4804      	ldr	r0, [pc, #16]	; (400188 <__do_global_dtors_aux+0x20>)
  400176:	f3af 8000 	nop.w
  40017a:	2301      	movs	r3, #1
  40017c:	7023      	strb	r3, [r4, #0]
  40017e:	bd10      	pop	{r4, pc}
  400180:	20400140 	.word	0x20400140
  400184:	00000000 	.word	0x00000000
  400188:	004021a4 	.word	0x004021a4

0040018c <frame_dummy>:
  40018c:	b508      	push	{r3, lr}
  40018e:	4b03      	ldr	r3, [pc, #12]	; (40019c <frame_dummy+0x10>)
  400190:	b11b      	cbz	r3, 40019a <frame_dummy+0xe>
  400192:	4903      	ldr	r1, [pc, #12]	; (4001a0 <frame_dummy+0x14>)
  400194:	4803      	ldr	r0, [pc, #12]	; (4001a4 <frame_dummy+0x18>)
  400196:	f3af 8000 	nop.w
  40019a:	bd08      	pop	{r3, pc}
  40019c:	00000000 	.word	0x00000000
  4001a0:	20400144 	.word	0x20400144
  4001a4:	004021a4 	.word	0x004021a4

004001a8 <atmel_start_init>:
/**
 * Initializes MCU, drivers and middleware in the project
 **/
void atmel_start_init(void)
{
	system_init();
  4001a8:	4b03      	ldr	r3, [pc, #12]	; (4001b8 <atmel_start_init+0x10>)
{
  4001aa:	b510      	push	{r4, lr}
	system_init();
  4001ac:	4798      	blx	r3
	usb_init();
  4001ae:	4b03      	ldr	r3, [pc, #12]	; (4001bc <atmel_start_init+0x14>)
}
  4001b0:	e8bd 4010 	ldmia.w	sp!, {r4, lr}
	usb_init();
  4001b4:	4718      	bx	r3
  4001b6:	bf00      	nop
  4001b8:	00402075 	.word	0x00402075
  4001bc:	004012e1 	.word	0x004012e1

004001c0 <cdcdf_acm_req>:
 * \param[in] ep Endpoint address.
 * \param[in] req Pointer to the request.
 * \return Operation status.
 */
static int32_t cdcdf_acm_req(uint8_t ep, struct usb_req *req, enum usb_ctrl_stage stage)
{
  4001c0:	e92d 41f3 	stmdb	sp!, {r0, r1, r4, r5, r6, r7, r8, lr}
  4001c4:	4615      	mov	r5, r2
	if (0x01 != ((req->bmRequestType >> 5) & 0x03)) { // class request
  4001c6:	780a      	ldrb	r2, [r1, #0]
{
  4001c8:	4606      	mov	r6, r0
  4001ca:	460c      	mov	r4, r1
	if (0x01 != ((req->bmRequestType >> 5) & 0x03)) { // class request
  4001cc:	f3c2 1341 	ubfx	r3, r2, #5, #2
  4001d0:	2b01      	cmp	r3, #1
  4001d2:	d155      	bne.n	400280 <cdcdf_acm_req+0xc0>
		return ERR_NOT_FOUND;
	}
	if ((req->wIndex == _cdcdf_acm_funcd.func_iface[0]) || (req->wIndex == _cdcdf_acm_funcd.func_iface[1])) {
  4001d4:	4b2d      	ldr	r3, [pc, #180]	; (40028c <cdcdf_acm_req+0xcc>)
  4001d6:	8889      	ldrh	r1, [r1, #4]
  4001d8:	7818      	ldrb	r0, [r3, #0]
  4001da:	4698      	mov	r8, r3
  4001dc:	4288      	cmp	r0, r1
  4001de:	d002      	beq.n	4001e6 <cdcdf_acm_req+0x26>
  4001e0:	785b      	ldrb	r3, [r3, #1]
  4001e2:	428b      	cmp	r3, r1
  4001e4:	d14c      	bne.n	400280 <cdcdf_acm_req+0xc0>
		if (req->bmRequestType & USB_EP_DIR_IN) {
  4001e6:	0613      	lsls	r3, r2, #24
  4001e8:	88e7      	ldrh	r7, [r4, #6]
  4001ea:	d50f      	bpl.n	40020c <cdcdf_acm_req+0x4c>
	if (USB_DATA_STAGE == stage) {
  4001ec:	2d01      	cmp	r5, #1
  4001ee:	d033      	beq.n	400258 <cdcdf_acm_req+0x98>
	switch (req->bRequest) {
  4001f0:	7863      	ldrb	r3, [r4, #1]
  4001f2:	2b21      	cmp	r3, #33	; 0x21
  4001f4:	d112      	bne.n	40021c <cdcdf_acm_req+0x5c>
		if (sizeof(struct usb_cdc_line_coding) != len) {
  4001f6:	2f07      	cmp	r7, #7
  4001f8:	d145      	bne.n	400286 <cdcdf_acm_req+0xc6>
		return usbdc_xfer(ep, (uint8_t *)&usbd_cdc_line_coding, len, false);
  4001fa:	2300      	movs	r3, #0
  4001fc:	463a      	mov	r2, r7
  4001fe:	4924      	ldr	r1, [pc, #144]	; (400290 <cdcdf_acm_req+0xd0>)
			return usbdc_xfer(ep, ctrl_buf, len, false);
  400200:	4630      	mov	r0, r6
  400202:	4c24      	ldr	r4, [pc, #144]	; (400294 <cdcdf_acm_req+0xd4>)
  400204:	47a0      	blx	r4
			return cdcdf_acm_set_req(ep, req, stage);
		}
	} else {
		return ERR_NOT_FOUND;
	}
}
  400206:	b002      	add	sp, #8
  400208:	e8bd 81f0 	ldmia.w	sp!, {r4, r5, r6, r7, r8, pc}
	uint8_t *                  ctrl_buf = usbdc_get_ctrl_buffer();
  40020c:	4b22      	ldr	r3, [pc, #136]	; (400298 <cdcdf_acm_req+0xd8>)
  40020e:	4798      	blx	r3
	switch (req->bRequest) {
  400210:	7863      	ldrb	r3, [r4, #1]
	uint8_t *                  ctrl_buf = usbdc_get_ctrl_buffer();
  400212:	4601      	mov	r1, r0
	switch (req->bRequest) {
  400214:	2b20      	cmp	r3, #32
  400216:	d004      	beq.n	400222 <cdcdf_acm_req+0x62>
  400218:	2b22      	cmp	r3, #34	; 0x22
  40021a:	d024      	beq.n	400266 <cdcdf_acm_req+0xa6>
		return ERR_INVALID_ARG;
  40021c:	f06f 000c 	mvn.w	r0, #12
  400220:	e7f1      	b.n	400206 <cdcdf_acm_req+0x46>
		if (sizeof(struct usb_cdc_line_coding) != len) {
  400222:	2f07      	cmp	r7, #7
  400224:	d12f      	bne.n	400286 <cdcdf_acm_req+0xc6>
		if (USB_SETUP_STAGE == stage) {
  400226:	b915      	cbnz	r5, 40022e <cdcdf_acm_req+0x6e>
			return usbdc_xfer(ep, ctrl_buf, len, false);
  400228:	462b      	mov	r3, r5
  40022a:	463a      	mov	r2, r7
  40022c:	e7e8      	b.n	400200 <cdcdf_acm_req+0x40>
			memcpy(&line_coding_tmp, ctrl_buf, sizeof(struct usb_cdc_line_coding));
  40022e:	6800      	ldr	r0, [r0, #0]
  400230:	9000      	str	r0, [sp, #0]
  400232:	798b      	ldrb	r3, [r1, #6]
  400234:	888a      	ldrh	r2, [r1, #4]
  400236:	f88d 3006 	strb.w	r3, [sp, #6]
			if ((NULL == cdcdf_acm_set_line_coding) || (true == cdcdf_acm_set_line_coding(&line_coding_tmp))) {
  40023a:	f8d8 3010 	ldr.w	r3, [r8, #16]
			memcpy(&line_coding_tmp, ctrl_buf, sizeof(struct usb_cdc_line_coding));
  40023e:	f8ad 2004 	strh.w	r2, [sp, #4]
			if ((NULL == cdcdf_acm_set_line_coding) || (true == cdcdf_acm_set_line_coding(&line_coding_tmp))) {
  400242:	b95b      	cbnz	r3, 40025c <cdcdf_acm_req+0x9c>
				usbd_cdc_line_coding = line_coding_tmp;
  400244:	4b12      	ldr	r3, [pc, #72]	; (400290 <cdcdf_acm_req+0xd0>)
  400246:	9800      	ldr	r0, [sp, #0]
  400248:	f8bd 1004 	ldrh.w	r1, [sp, #4]
  40024c:	f89d 2006 	ldrb.w	r2, [sp, #6]
  400250:	f8c8 0006 	str.w	r0, [r8, #6]
  400254:	8099      	strh	r1, [r3, #4]
  400256:	719a      	strb	r2, [r3, #6]
		return ERR_NONE;
  400258:	2000      	movs	r0, #0
  40025a:	e7d4      	b.n	400206 <cdcdf_acm_req+0x46>
			if ((NULL == cdcdf_acm_set_line_coding) || (true == cdcdf_acm_set_line_coding(&line_coding_tmp))) {
  40025c:	4668      	mov	r0, sp
  40025e:	4798      	blx	r3
  400260:	2800      	cmp	r0, #0
  400262:	d1ef      	bne.n	400244 <cdcdf_acm_req+0x84>
  400264:	e7f8      	b.n	400258 <cdcdf_acm_req+0x98>
		usbdc_xfer(0, NULL, 0, 0);
  400266:	2300      	movs	r3, #0
  400268:	4d0a      	ldr	r5, [pc, #40]	; (400294 <cdcdf_acm_req+0xd4>)
  40026a:	461a      	mov	r2, r3
  40026c:	4619      	mov	r1, r3
  40026e:	4618      	mov	r0, r3
  400270:	47a8      	blx	r5
		if (NULL != cdcdf_acm_notify_state) {
  400272:	f8d8 3014 	ldr.w	r3, [r8, #20]
  400276:	2b00      	cmp	r3, #0
  400278:	d0ee      	beq.n	400258 <cdcdf_acm_req+0x98>
			cdcdf_acm_notify_state(req->wValue);
  40027a:	8860      	ldrh	r0, [r4, #2]
  40027c:	4798      	blx	r3
  40027e:	e7eb      	b.n	400258 <cdcdf_acm_req+0x98>
		return ERR_NOT_FOUND;
  400280:	f06f 0009 	mvn.w	r0, #9
  400284:	e7bf      	b.n	400206 <cdcdf_acm_req+0x46>
			return ERR_INVALID_DATA;
  400286:	f04f 30ff 	mov.w	r0, #4294967295	; 0xffffffff
  40028a:	e7bc      	b.n	400206 <cdcdf_acm_req+0x46>
  40028c:	2040015c 	.word	0x2040015c
  400290:	20400162 	.word	0x20400162
  400294:	00401aed 	.word	0x00401aed
  400298:	00402025 	.word	0x00402025

0040029c <cdcdf_acm_ctrl>:
	switch (ctrl) {
  40029c:	2901      	cmp	r1, #1
{
  40029e:	e92d 4ff8 	stmdb	sp!, {r3, r4, r5, r6, r7, r8, r9, sl, fp, lr}
  4002a2:	4615      	mov	r5, r2
	switch (ctrl) {
  4002a4:	d04f      	beq.n	400346 <cdcdf_acm_ctrl+0xaa>
  4002a6:	2902      	cmp	r1, #2
  4002a8:	d076      	beq.n	400398 <cdcdf_acm_ctrl+0xfc>
  4002aa:	2900      	cmp	r1, #0
  4002ac:	d177      	bne.n	40039e <cdcdf_acm_ctrl+0x102>
		return cdcdf_acm_enable(drv, (struct usbd_descriptors *)param);
  4002ae:	6887      	ldr	r7, [r0, #8]
		ep = usb_find_desc(ifc, desc->eod, USB_DT_ENDPOINT);
  4002b0:	f8df 8114 	ldr.w	r8, [pc, #276]	; 4003c8 <cdcdf_acm_ctrl+0x12c>
	ifc = desc->sod;
  4002b4:	6810      	ldr	r0, [r2, #0]
	for (i = 0; i < 2; i++) {
  4002b6:	1e7e      	subs	r6, r7, #1
		if (NULL == ifc) {
  4002b8:	b928      	cbnz	r0, 4002c6 <cdcdf_acm_ctrl+0x2a>
			return ERR_NOT_FOUND;
  4002ba:	f06f 0009 	mvn.w	r0, #9
}
  4002be:	e8bd 8ff8 	ldmia.w	sp!, {r3, r4, r5, r6, r7, r8, r9, sl, fp, pc}
  4002c2:	464e      	mov	r6, r9
  4002c4:	e7f8      	b.n	4002b8 <cdcdf_acm_ctrl+0x1c>
		if ((CDC_CLASS_COMM == ifc_desc.bInterfaceClass) || (CDC_CLASS_DATA == ifc_desc.bInterfaceClass)) {
  4002c6:	7943      	ldrb	r3, [r0, #5]
		ifc_desc.bInterfaceNumber = ifc[2];
  4002c8:	7882      	ldrb	r2, [r0, #2]
		if ((CDC_CLASS_COMM == ifc_desc.bInterfaceClass) || (CDC_CLASS_DATA == ifc_desc.bInterfaceClass)) {
  4002ca:	f003 03f7 	and.w	r3, r3, #247	; 0xf7
  4002ce:	2b02      	cmp	r3, #2
  4002d0:	d1f3      	bne.n	4002ba <cdcdf_acm_ctrl+0x1e>
			if (func_data->func_iface[i] == ifc_desc.bInterfaceNumber) { // Initialized
  4002d2:	7873      	ldrb	r3, [r6, #1]
  4002d4:	429a      	cmp	r2, r3
  4002d6:	d065      	beq.n	4003a4 <cdcdf_acm_ctrl+0x108>
			} else if (func_data->func_iface[i] != 0xFF) { // Occupied
  4002d8:	2bff      	cmp	r3, #255	; 0xff
  4002da:	d166      	bne.n	4003aa <cdcdf_acm_ctrl+0x10e>
				func_data->func_iface[i] = ifc_desc.bInterfaceNumber;
  4002dc:	7072      	strb	r2, [r6, #1]
		ep = usb_find_desc(ifc, desc->eod, USB_DT_ENDPOINT);
  4002de:	2205      	movs	r2, #5
  4002e0:	6869      	ldr	r1, [r5, #4]
  4002e2:	f106 0901 	add.w	r9, r6, #1
  4002e6:	47c0      	blx	r8
  4002e8:	f8df a0e0 	ldr.w	sl, [pc, #224]	; 4003cc <cdcdf_acm_ctrl+0x130>
  4002ec:	4604      	mov	r4, r0
		while (NULL != ep) {
  4002ee:	b964      	cbnz	r4, 40030a <cdcdf_acm_ctrl+0x6e>
		ifc = usb_find_desc(usb_desc_next(desc->sod), desc->eod, USB_DT_INTERFACE);
  4002f0:	682b      	ldr	r3, [r5, #0]
  4002f2:	2204      	movs	r2, #4
  4002f4:	6869      	ldr	r1, [r5, #4]
 *  \param[in] desc Byte pointer to the descriptor start address
 *  \return Byte pointer to the next descriptor
 */
static inline uint8_t *usb_desc_next(uint8_t *desc)
{
	return (desc + usb_desc_len(desc));
  4002f6:	7818      	ldrb	r0, [r3, #0]
  4002f8:	4418      	add	r0, r3
  4002fa:	47c0      	blx	r8
	for (i = 0; i < 2; i++) {
  4002fc:	42be      	cmp	r6, r7
  4002fe:	d1e0      	bne.n	4002c2 <cdcdf_acm_ctrl+0x26>
	_cdcdf_acm_funcd.enabled = true;
  400300:	4b2d      	ldr	r3, [pc, #180]	; (4003b8 <cdcdf_acm_ctrl+0x11c>)
  400302:	2201      	movs	r2, #1
	return ERR_NONE;
  400304:	4620      	mov	r0, r4
	_cdcdf_acm_funcd.enabled = true;
  400306:	715a      	strb	r2, [r3, #5]
	return ERR_NONE;
  400308:	e7d9      	b.n	4002be <cdcdf_acm_ctrl+0x22>
	return (ptr[0] + (ptr[1] << 8));
  40030a:	7961      	ldrb	r1, [r4, #5]
  40030c:	7922      	ldrb	r2, [r4, #4]
			ep_desc.bEndpointAddress = ep[2];
  40030e:	f894 b002 	ldrb.w	fp, [r4, #2]
  400312:	eb02 2201 	add.w	r2, r2, r1, lsl #8
			if (usb_d_ep_init(ep_desc.bEndpointAddress, ep_desc.bmAttributes, ep_desc.wMaxPacketSize)) {
  400316:	4b29      	ldr	r3, [pc, #164]	; (4003bc <cdcdf_acm_ctrl+0x120>)
  400318:	78e1      	ldrb	r1, [r4, #3]
  40031a:	4658      	mov	r0, fp
  40031c:	b292      	uxth	r2, r2
  40031e:	4798      	blx	r3
  400320:	2800      	cmp	r0, #0
  400322:	d145      	bne.n	4003b0 <cdcdf_acm_ctrl+0x114>
			if (ep_desc.bEndpointAddress & USB_EP_DIR_IN) {
  400324:	f01b 0f80 	tst.w	fp, #128	; 0x80
				usb_d_ep_enable(func_data->func_ep_out);
  400328:	4658      	mov	r0, fp
				func_data->func_ep_in[i] = ep_desc.bEndpointAddress;
  40032a:	bf14      	ite	ne
  40032c:	f889 b002 	strbne.w	fp, [r9, #2]
				func_data->func_ep_out = ep_desc.bEndpointAddress;
  400330:	f887 b004 	strbeq.w	fp, [r7, #4]
				usb_d_ep_enable(func_data->func_ep_out);
  400334:	47d0      	blx	sl
			desc->sod = ep;
  400336:	602c      	str	r4, [r5, #0]
	return (desc + usb_desc_len(desc));
  400338:	7820      	ldrb	r0, [r4, #0]
			ep        = usb_find_ep_desc(usb_desc_next(desc->sod), desc->eod);
  40033a:	6869      	ldr	r1, [r5, #4]
  40033c:	4420      	add	r0, r4
  40033e:	4b20      	ldr	r3, [pc, #128]	; (4003c0 <cdcdf_acm_ctrl+0x124>)
  400340:	4798      	blx	r3
  400342:	4604      	mov	r4, r0
  400344:	e7d3      	b.n	4002ee <cdcdf_acm_ctrl+0x52>
		return cdcdf_acm_disable(drv, (struct usbd_descriptors *)param);
  400346:	6884      	ldr	r4, [r0, #8]
	if (desc) {
  400348:	b12a      	cbz	r2, 400356 <cdcdf_acm_ctrl+0xba>
		ifc_desc.bInterfaceClass = desc->sod[5];
  40034a:	6813      	ldr	r3, [r2, #0]
		if ((ifc_desc.bInterfaceClass != CDC_CLASS_COMM) && (ifc_desc.bInterfaceClass != CDC_CLASS_DATA)) {
  40034c:	795b      	ldrb	r3, [r3, #5]
  40034e:	f003 03f7 	and.w	r3, r3, #247	; 0xf7
  400352:	2b02      	cmp	r3, #2
  400354:	d1b1      	bne.n	4002ba <cdcdf_acm_ctrl+0x1e>
		if (func_data->func_iface[i] == 0xFF) {
  400356:	7823      	ldrb	r3, [r4, #0]
  400358:	2bff      	cmp	r3, #255	; 0xff
  40035a:	d007      	beq.n	40036c <cdcdf_acm_ctrl+0xd0>
			func_data->func_iface[i] = 0xFF;
  40035c:	25ff      	movs	r5, #255	; 0xff
			if (func_data->func_ep_in[i] != 0xFF) {
  40035e:	78a0      	ldrb	r0, [r4, #2]
  400360:	42a8      	cmp	r0, r5
			func_data->func_iface[i] = 0xFF;
  400362:	7025      	strb	r5, [r4, #0]
			if (func_data->func_ep_in[i] != 0xFF) {
  400364:	d002      	beq.n	40036c <cdcdf_acm_ctrl+0xd0>
				usb_d_ep_deinit(func_data->func_ep_in[i]);
  400366:	4b17      	ldr	r3, [pc, #92]	; (4003c4 <cdcdf_acm_ctrl+0x128>)
  400368:	4798      	blx	r3
				func_data->func_ep_in[i] = 0xFF;
  40036a:	70a5      	strb	r5, [r4, #2]
		if (func_data->func_iface[i] == 0xFF) {
  40036c:	7863      	ldrb	r3, [r4, #1]
  40036e:	2bff      	cmp	r3, #255	; 0xff
  400370:	d007      	beq.n	400382 <cdcdf_acm_ctrl+0xe6>
			func_data->func_iface[i] = 0xFF;
  400372:	25ff      	movs	r5, #255	; 0xff
			if (func_data->func_ep_in[i] != 0xFF) {
  400374:	78e0      	ldrb	r0, [r4, #3]
  400376:	42a8      	cmp	r0, r5
			func_data->func_iface[i] = 0xFF;
  400378:	7065      	strb	r5, [r4, #1]
			if (func_data->func_ep_in[i] != 0xFF) {
  40037a:	d002      	beq.n	400382 <cdcdf_acm_ctrl+0xe6>
				usb_d_ep_deinit(func_data->func_ep_in[i]);
  40037c:	4b11      	ldr	r3, [pc, #68]	; (4003c4 <cdcdf_acm_ctrl+0x128>)
  40037e:	4798      	blx	r3
				func_data->func_ep_in[i] = 0xFF;
  400380:	70e5      	strb	r5, [r4, #3]
	if (func_data->func_ep_out != 0xFF) {
  400382:	7920      	ldrb	r0, [r4, #4]
  400384:	28ff      	cmp	r0, #255	; 0xff
  400386:	d003      	beq.n	400390 <cdcdf_acm_ctrl+0xf4>
		usb_d_ep_deinit(func_data->func_ep_out);
  400388:	4b0e      	ldr	r3, [pc, #56]	; (4003c4 <cdcdf_acm_ctrl+0x128>)
  40038a:	4798      	blx	r3
		func_data->func_ep_out = 0xFF;
  40038c:	23ff      	movs	r3, #255	; 0xff
  40038e:	7123      	strb	r3, [r4, #4]
	_cdcdf_acm_funcd.enabled = false;
  400390:	2000      	movs	r0, #0
  400392:	4b09      	ldr	r3, [pc, #36]	; (4003b8 <cdcdf_acm_ctrl+0x11c>)
  400394:	7158      	strb	r0, [r3, #5]
	return ERR_NONE;
  400396:	e792      	b.n	4002be <cdcdf_acm_ctrl+0x22>
		return ERR_UNSUPPORTED_OP;
  400398:	f06f 001a 	mvn.w	r0, #26
  40039c:	e78f      	b.n	4002be <cdcdf_acm_ctrl+0x22>
	switch (ctrl) {
  40039e:	f06f 000c 	mvn.w	r0, #12
  4003a2:	e78c      	b.n	4002be <cdcdf_acm_ctrl+0x22>
				return ERR_ALREADY_INITIALIZED;
  4003a4:	f06f 0011 	mvn.w	r0, #17
  4003a8:	e789      	b.n	4002be <cdcdf_acm_ctrl+0x22>
				return ERR_NO_RESOURCE;
  4003aa:	f06f 001b 	mvn.w	r0, #27
  4003ae:	e786      	b.n	4002be <cdcdf_acm_ctrl+0x22>
				return ERR_NOT_INITIALIZED;
  4003b0:	f06f 0013 	mvn.w	r0, #19
  4003b4:	e783      	b.n	4002be <cdcdf_acm_ctrl+0x22>
  4003b6:	bf00      	nop
  4003b8:	2040015c 	.word	0x2040015c
  4003bc:	00401709 	.word	0x00401709
  4003c0:	004013df 	.word	0x004013df
  4003c4:	0040176d 	.word	0x0040176d
  4003c8:	004013c5 	.word	0x004013c5
  4003cc:	00401799 	.word	0x00401799

004003d0 <cdcdf_acm_init>:

/**
 * \brief Initialize the USB CDC ACM Function Driver
 */
int32_t cdcdf_acm_init(void)
{
  4003d0:	b508      	push	{r3, lr}
	if (usbdc_get_state() > USBD_S_POWER) {
  4003d2:	4b0a      	ldr	r3, [pc, #40]	; (4003fc <cdcdf_acm_init+0x2c>)
  4003d4:	4798      	blx	r3
  4003d6:	2801      	cmp	r0, #1
  4003d8:	d80c      	bhi.n	4003f4 <cdcdf_acm_init+0x24>
		return ERR_DENIED;
	}

	_cdcdf_acm.ctrl      = cdcdf_acm_ctrl;
  4003da:	4809      	ldr	r0, [pc, #36]	; (400400 <cdcdf_acm_init+0x30>)
  4003dc:	4b09      	ldr	r3, [pc, #36]	; (400404 <cdcdf_acm_init+0x34>)
	_cdcdf_acm.func_data = &_cdcdf_acm_funcd;
  4003de:	e9c0 3007 	strd	r3, r0, [r0, #28]

	usbdc_register_function(&_cdcdf_acm);
  4003e2:	3018      	adds	r0, #24
  4003e4:	4b08      	ldr	r3, [pc, #32]	; (400408 <cdcdf_acm_init+0x38>)
  4003e6:	4798      	blx	r3
	usbdc_register_handler(USBDC_HDL_REQ, &cdcdf_acm_req_h);
  4003e8:	2001      	movs	r0, #1
  4003ea:	4908      	ldr	r1, [pc, #32]	; (40040c <cdcdf_acm_init+0x3c>)
  4003ec:	4b08      	ldr	r3, [pc, #32]	; (400410 <cdcdf_acm_init+0x40>)
  4003ee:	4798      	blx	r3
	return ERR_NONE;
  4003f0:	2000      	movs	r0, #0
}
  4003f2:	bd08      	pop	{r3, pc}
		return ERR_DENIED;
  4003f4:	f06f 0010 	mvn.w	r0, #16
  4003f8:	e7fb      	b.n	4003f2 <cdcdf_acm_init+0x22>
  4003fa:	bf00      	nop
  4003fc:	00402031 	.word	0x00402031
  400400:	2040015c 	.word	0x2040015c
  400404:	0040029d 	.word	0x0040029d
  400408:	00401fd1 	.word	0x00401fd1
  40040c:	20400000 	.word	0x20400000
  400410:	00401f49 	.word	0x00401f49

00400414 <cdcdf_acm_read>:

/**
 * \brief USB CDC ACM Function Read Data
 */
int32_t cdcdf_acm_read(uint8_t *buf, uint32_t size)
{
  400414:	b410      	push	{r4}
/**
 * \brief Check whether CDC ACM Function is enabled
 */
bool cdcdf_acm_is_enabled(void)
{
	return _cdcdf_acm_funcd.enabled;
  400416:	4c08      	ldr	r4, [pc, #32]	; (400438 <cdcdf_acm_read+0x24>)
{
  400418:	460a      	mov	r2, r1
	if (!cdcdf_acm_is_enabled()) {
  40041a:	7963      	ldrb	r3, [r4, #5]
  40041c:	b13b      	cbz	r3, 40042e <cdcdf_acm_read+0x1a>
	return usbdc_xfer(_cdcdf_acm_funcd.func_ep_out, buf, size, false);
  40041e:	4601      	mov	r1, r0
  400420:	7920      	ldrb	r0, [r4, #4]
  400422:	4c06      	ldr	r4, [pc, #24]	; (40043c <cdcdf_acm_read+0x28>)
  400424:	2300      	movs	r3, #0
  400426:	46a4      	mov	ip, r4
}
  400428:	f85d 4b04 	ldr.w	r4, [sp], #4
	return usbdc_xfer(_cdcdf_acm_funcd.func_ep_out, buf, size, false);
  40042c:	4760      	bx	ip
}
  40042e:	f06f 0010 	mvn.w	r0, #16
  400432:	f85d 4b04 	ldr.w	r4, [sp], #4
  400436:	4770      	bx	lr
  400438:	2040015c 	.word	0x2040015c
  40043c:	00401aed 	.word	0x00401aed

00400440 <cdcdf_acm_write>:
{
  400440:	b410      	push	{r4}
	return _cdcdf_acm_funcd.enabled;
  400442:	4c08      	ldr	r4, [pc, #32]	; (400464 <cdcdf_acm_write+0x24>)
{
  400444:	460a      	mov	r2, r1
	if (!cdcdf_acm_is_enabled()) {
  400446:	7963      	ldrb	r3, [r4, #5]
  400448:	b13b      	cbz	r3, 40045a <cdcdf_acm_write+0x1a>
	return usbdc_xfer(_cdcdf_acm_funcd.func_ep_in[CDCDF_ACM_DATA_EP_INDEX], buf, size, true);
  40044a:	4601      	mov	r1, r0
  40044c:	78e0      	ldrb	r0, [r4, #3]
  40044e:	4c06      	ldr	r4, [pc, #24]	; (400468 <cdcdf_acm_write+0x28>)
  400450:	2301      	movs	r3, #1
  400452:	46a4      	mov	ip, r4
}
  400454:	f85d 4b04 	ldr.w	r4, [sp], #4
	return usbdc_xfer(_cdcdf_acm_funcd.func_ep_in[CDCDF_ACM_DATA_EP_INDEX], buf, size, true);
  400458:	4760      	bx	ip
}
  40045a:	f06f 0010 	mvn.w	r0, #16
  40045e:	f85d 4b04 	ldr.w	r4, [sp], #4
  400462:	4770      	bx	lr
  400464:	2040015c 	.word	0x2040015c
  400468:	00401aed 	.word	0x00401aed

0040046c <cdcdf_acm_register_callback>:
{
  40046c:	460a      	mov	r2, r1
  40046e:	b508      	push	{r3, lr}
  400470:	2803      	cmp	r0, #3
  400472:	d814      	bhi.n	40049e <cdcdf_acm_register_callback+0x32>
  400474:	e8df f000 	tbb	[pc, r0]
  400478:	100d0902 	.word	0x100d0902
		usb_d_ep_register_callback(_cdcdf_acm_funcd.func_ep_out, USB_D_EP_CB_XFER, func);
  40047c:	4b09      	ldr	r3, [pc, #36]	; (4004a4 <cdcdf_acm_register_callback+0x38>)
  40047e:	2102      	movs	r1, #2
  400480:	7918      	ldrb	r0, [r3, #4]
		usb_d_ep_register_callback(_cdcdf_acm_funcd.func_ep_in[CDCDF_ACM_DATA_EP_INDEX], USB_D_EP_CB_XFER, func);
  400482:	4b09      	ldr	r3, [pc, #36]	; (4004a8 <cdcdf_acm_register_callback+0x3c>)
  400484:	4798      	blx	r3
	return ERR_NONE;
  400486:	2000      	movs	r0, #0
}
  400488:	bd08      	pop	{r3, pc}
		usb_d_ep_register_callback(_cdcdf_acm_funcd.func_ep_in[CDCDF_ACM_DATA_EP_INDEX], USB_D_EP_CB_XFER, func);
  40048a:	4b06      	ldr	r3, [pc, #24]	; (4004a4 <cdcdf_acm_register_callback+0x38>)
  40048c:	2102      	movs	r1, #2
  40048e:	78d8      	ldrb	r0, [r3, #3]
  400490:	e7f7      	b.n	400482 <cdcdf_acm_register_callback+0x16>
		cdcdf_acm_set_line_coding = (cdcdf_acm_set_line_coding_t)func;
  400492:	4b04      	ldr	r3, [pc, #16]	; (4004a4 <cdcdf_acm_register_callback+0x38>)
  400494:	6119      	str	r1, [r3, #16]
		break;
  400496:	e7f6      	b.n	400486 <cdcdf_acm_register_callback+0x1a>
		cdcdf_acm_notify_state = (cdcdf_acm_notify_state_t)func;
  400498:	4b02      	ldr	r3, [pc, #8]	; (4004a4 <cdcdf_acm_register_callback+0x38>)
  40049a:	6159      	str	r1, [r3, #20]
  40049c:	e7f3      	b.n	400486 <cdcdf_acm_register_callback+0x1a>
	return ERR_NONE;
  40049e:	f06f 000c 	mvn.w	r0, #12
  4004a2:	e7f1      	b.n	400488 <cdcdf_acm_register_callback+0x1c>
  4004a4:	2040015c 	.word	0x2040015c
  4004a8:	00401925 	.word	0x00401925

004004ac <cdcdf_acm_is_enabled>:
}
  4004ac:	4b01      	ldr	r3, [pc, #4]	; (4004b4 <cdcdf_acm_is_enabled+0x8>)
  4004ae:	7958      	ldrb	r0, [r3, #5]
  4004b0:	4770      	bx	lr
  4004b2:	bf00      	nop
  4004b4:	2040015c 	.word	0x2040015c

004004b8 <Dummy_Handler>:
/**
 * \brief Default interrupt handler for unused IRQs.
 */
void Dummy_Handler(void)
{
	while (1) {
  4004b8:	e7fe      	b.n	4004b8 <Dummy_Handler>
	...

004004bc <Reset_Handler>:
	if (pSrc != pDest) {
  4004bc:	4a0f      	ldr	r2, [pc, #60]	; (4004fc <Reset_Handler+0x40>)
{
  4004be:	b508      	push	{r3, lr}
	if (pSrc != pDest) {
  4004c0:	4b0f      	ldr	r3, [pc, #60]	; (400500 <Reset_Handler+0x44>)
  4004c2:	429a      	cmp	r2, r3
  4004c4:	d002      	beq.n	4004cc <Reset_Handler+0x10>
		for (; pDest < &_erelocate;) {
  4004c6:	490f      	ldr	r1, [pc, #60]	; (400504 <Reset_Handler+0x48>)
  4004c8:	428b      	cmp	r3, r1
  4004ca:	d30e      	bcc.n	4004ea <Reset_Handler+0x2e>
	pSrc  = &_etext;
  4004cc:	4b0e      	ldr	r3, [pc, #56]	; (400508 <Reset_Handler+0x4c>)
		*pDest++ = 0;
  4004ce:	2100      	movs	r1, #0
	for (pDest = &_szero; pDest < &_ezero;) {
  4004d0:	4a0e      	ldr	r2, [pc, #56]	; (40050c <Reset_Handler+0x50>)
  4004d2:	4293      	cmp	r3, r2
  4004d4:	d30e      	bcc.n	4004f4 <Reset_Handler+0x38>
	SCB->VTOR = ((uint32_t)pSrc & SCB_VTOR_TBLOFF_Msk);
  4004d6:	4b0e      	ldr	r3, [pc, #56]	; (400510 <Reset_Handler+0x54>)
  4004d8:	4a0e      	ldr	r2, [pc, #56]	; (400514 <Reset_Handler+0x58>)
  4004da:	f023 037f 	bic.w	r3, r3, #127	; 0x7f
  4004de:	6093      	str	r3, [r2, #8]
	__libc_init_array();
  4004e0:	4b0d      	ldr	r3, [pc, #52]	; (400518 <Reset_Handler+0x5c>)
  4004e2:	4798      	blx	r3
	main();
  4004e4:	4b0d      	ldr	r3, [pc, #52]	; (40051c <Reset_Handler+0x60>)
  4004e6:	4798      	blx	r3
	while (1)
  4004e8:	e7fe      	b.n	4004e8 <Reset_Handler+0x2c>
			*pDest++ = *pSrc++;
  4004ea:	f852 0b04 	ldr.w	r0, [r2], #4
  4004ee:	f843 0b04 	str.w	r0, [r3], #4
  4004f2:	e7e9      	b.n	4004c8 <Reset_Handler+0xc>
		*pDest++ = 0;
  4004f4:	f843 1b04 	str.w	r1, [r3], #4
  4004f8:	e7eb      	b.n	4004d2 <Reset_Handler+0x16>
  4004fa:	bf00      	nop
  4004fc:	004021a4 	.word	0x004021a4
  400500:	20400000 	.word	0x20400000
  400504:	20400140 	.word	0x20400140
  400508:	20400140 	.word	0x20400140
  40050c:	204004f4 	.word	0x204004f4
  400510:	00400000 	.word	0x00400000
  400514:	e000ed00 	.word	0xe000ed00
  400518:	004020b5 	.word	0x004020b5
  40051c:	00401971 	.word	0x00401971

00400520 <_dummy_func_no_return>:
 */
static void _dummy_func_no_return(uint32_t unused0, uint32_t unused1)
{
	(void)unused0;
	(void)unused1;
}
  400520:	4770      	bx	lr

00400522 <_dummy_func_return_false>:
static bool _dummy_func_return_false(uint32_t unused0, uint32_t unused1)
{
	(void)unused0;
	(void)unused1;
	return false;
}
  400522:	2000      	movs	r0, #0
  400524:	4770      	bx	lr
	...

00400528 <_usb_d_dev_handle_setup>:
 * \param[in] ept Pointer to endpoint information.
 */
static void _usb_d_dev_handle_setup(struct _usb_d_dev_ep *ept)
{
	uint8_t epn     = USB_EP_GET_N(ept->ep);
	bool    is_ctrl = _usb_d_dev_ep_is_ctrl(ept);
  400528:	7cc2      	ldrb	r2, [r0, #19]
{
  40052a:	b410      	push	{r4}

	if (!is_ctrl) {
  40052c:	f002 0407 	and.w	r4, r2, #7
	uint8_t epn     = USB_EP_GET_N(ept->ep);
  400530:	7c81      	ldrb	r1, [r0, #18]
	if (!is_ctrl) {
  400532:	2c01      	cmp	r4, #1
  400534:	f001 030f 	and.w	r3, r1, #15
  400538:	d00c      	beq.n	400554 <_usb_d_dev_handle_setup+0x2c>
	((Usbhs *)hw)->USBHS_DEVEPTICR[index] = mask;
}

static inline void hri_usbhs_write_DEVEPTICR_reg(const void *const hw, uint8_t index, hri_usbhs_deveptisr_reg_t data)
{
	((Usbhs *)hw)->USBHS_DEVEPTICR[index] = data;
  40053a:	009b      	lsls	r3, r3, #2
  40053c:	2204      	movs	r2, #4
	/* Clear status and notify SETUP */
	_usbd_ep_int_ack(epn, USBHS_DEVEPTISR_NAKINI | USBHS_DEVEPTISR_NAKOUTI);
	_usbd_ep_int_dis(epn, USBHS_DEVEPTIMR_NAKINE | USBHS_DEVEPTIMR_NAKOUTE);
	/* Invoke callback. */
	dev_inst.ep_callbacks.setup(ept->ep);
}
  40053e:	f85d 4b04 	ldr.w	r4, [sp], #4
  400542:	f103 4380 	add.w	r3, r3, #1073741824	; 0x40000000
  400546:	f503 3360 	add.w	r3, r3, #229376	; 0x38000
  40054a:	f8c3 2160 	str.w	r2, [r3, #352]	; 0x160
}

static inline void hri_usbhs_write_DEVEPTIDR_reg(const void *const hw, uint8_t index, hri_usbhs_deveptidr_reg_t data)
{
	USBHS_CRITICAL_SECTION_ENTER();
	((Usbhs *)hw)->USBHS_DEVEPTIDR[index] = data;
  40054e:	f8c3 2220 	str.w	r2, [r3, #544]	; 0x220
  400552:	4770      	bx	lr
	if (_usb_d_dev_ep_is_busy(ept)) {
  400554:	f012 0f40 	tst.w	r2, #64	; 0x40
  400558:	d00c      	beq.n	400574 <_usb_d_dev_handle_setup+0x4c>
		ept->flags.bits.is_busy = 0;
  40055a:	f36f 1286 	bfc	r2, #6, #1
  40055e:	74c2      	strb	r2, [r0, #19]
	((Usbhs *)hw)->USBHS_DEVEPTIFR[index] = data;
  400560:	009a      	lsls	r2, r3, #2
  400562:	f102 4280 	add.w	r2, r2, #1073741824	; 0x40000000
  400566:	f502 3260 	add.w	r2, r2, #229376	; 0x38000
  40056a:	f8c2 4190 	str.w	r4, [r2, #400]	; 0x190
	((Usbhs *)hw)->USBHS_DEVEPTICR[index] = data;
  40056e:	2402      	movs	r4, #2
  400570:	f8c2 4160 	str.w	r4, [r2, #352]	; 0x160
	ept->flags.bits.is_stalled = 0;
  400574:	7cc2      	ldrb	r2, [r0, #19]
  400576:	009b      	lsls	r3, r3, #2
}
  400578:	f85d 4b04 	ldr.w	r4, [sp], #4
	ept->flags.bits.is_stalled = 0;
  40057c:	f36f 02c3 	bfc	r2, #3, #1
  400580:	f103 4380 	add.w	r3, r3, #1073741824	; 0x40000000
  400584:	74c2      	strb	r2, [r0, #19]
  400586:	f503 3360 	add.w	r3, r3, #229376	; 0x38000
  40058a:	2218      	movs	r2, #24
	dev_inst.ep_callbacks.setup(ept->ep);
  40058c:	4608      	mov	r0, r1
  40058e:	f8c3 2160 	str.w	r2, [r3, #352]	; 0x160
	((Usbhs *)hw)->USBHS_DEVEPTIDR[index] = data;
  400592:	f8c3 2220 	str.w	r2, [r3, #544]	; 0x220
  400596:	4b01      	ldr	r3, [pc, #4]	; (40059c <_usb_d_dev_handle_setup+0x74>)
  400598:	689b      	ldr	r3, [r3, #8]
  40059a:	4718      	bx	r3
  40059c:	20400180 	.word	0x20400180

004005a0 <_usb_d_dev_trans_done>:
 *  \brief Finish the transaction and invoke callback
 * \param[in, out] ept Pointer to endpoint information.
 * \param[in] code Information code passed.
 */
static void _usb_d_dev_trans_done(struct _usb_d_dev_ep *ept, const int32_t code)
{
  4005a0:	b410      	push	{r4}
	if (!(_usb_d_dev_ep_is_used(ept) && _usb_d_dev_ep_is_busy(ept))) {
  4005a2:	7c84      	ldrb	r4, [r0, #18]
  4005a4:	2cff      	cmp	r4, #255	; 0xff
  4005a6:	d00c      	beq.n	4005c2 <_usb_d_dev_trans_done+0x22>
  4005a8:	7cc3      	ldrb	r3, [r0, #19]
  4005aa:	065a      	lsls	r2, r3, #25
  4005ac:	d509      	bpl.n	4005c2 <_usb_d_dev_trans_done+0x22>
		return;
	}

	ept->flags.bits.is_busy = 0;
  4005ae:	f36f 1386 	bfc	r3, #6, #1
	dev_inst.ep_callbacks.done(ept->ep, code, ept->trans_count);
  4005b2:	6882      	ldr	r2, [r0, #8]
	ept->flags.bits.is_busy = 0;
  4005b4:	74c3      	strb	r3, [r0, #19]
	dev_inst.ep_callbacks.done(ept->ep, code, ept->trans_count);
  4005b6:	4620      	mov	r0, r4
  4005b8:	4b03      	ldr	r3, [pc, #12]	; (4005c8 <_usb_d_dev_trans_done+0x28>)
}
  4005ba:	f85d 4b04 	ldr.w	r4, [sp], #4
	dev_inst.ep_callbacks.done(ept->ep, code, ept->trans_count);
  4005be:	691b      	ldr	r3, [r3, #16]
  4005c0:	4718      	bx	r3
}
  4005c2:	f85d 4b04 	ldr.w	r4, [sp], #4
  4005c6:	4770      	bx	lr
  4005c8:	20400180 	.word	0x20400180

004005cc <_usb_d_dev_reset_epts>:
	((Usbhs *)hw)->USBHS_DEVCTRL &= ~USBHS_DEVCTRL_ADDEN;
  4005cc:	4b13      	ldr	r3, [pc, #76]	; (40061c <_usb_d_dev_reset_epts+0x50>)
		_usb_d_dev_trans_done(&dev_inst.ep[i], USB_TRANS_RESET);
  4005ce:	2103      	movs	r1, #3
  4005d0:	681a      	ldr	r2, [r3, #0]
  4005d2:	f022 0280 	bic.w	r2, r2, #128	; 0x80
{
  4005d6:	b570      	push	{r4, r5, r6, lr}
  4005d8:	601a      	str	r2, [r3, #0]
		dev_inst.ep[i].ep       = 0xFF;
  4005da:	25ff      	movs	r5, #255	; 0xff
	tmp = ((Usbhs *)hw)->USBHS_DEVCTRL;
  4005dc:	681a      	ldr	r2, [r3, #0]
		_usb_d_dev_trans_done(&dev_inst.ep[i], USB_TRANS_RESET);
  4005de:	4c10      	ldr	r4, [pc, #64]	; (400620 <_usb_d_dev_reset_epts+0x54>)
	tmp &= ~USBHS_DEVCTRL_UADD_Msk;
  4005e0:	f022 027f 	bic.w	r2, r2, #127	; 0x7f
  4005e4:	4e0f      	ldr	r6, [pc, #60]	; (400624 <_usb_d_dev_reset_epts+0x58>)
  4005e6:	f104 0014 	add.w	r0, r4, #20
	((Usbhs *)hw)->USBHS_DEVCTRL = tmp;
  4005ea:	601a      	str	r2, [r3, #0]
	((Usbhs *)hw)->USBHS_DEVCTRL |= USBHS_DEVCTRL_ADDEN;
  4005ec:	681a      	ldr	r2, [r3, #0]
  4005ee:	f042 0280 	orr.w	r2, r2, #128	; 0x80
  4005f2:	601a      	str	r2, [r3, #0]
  4005f4:	47b0      	blx	r6
  4005f6:	2103      	movs	r1, #3
  4005f8:	f104 0028 	add.w	r0, r4, #40	; 0x28
		dev_inst.ep[i].ep       = 0xFF;
  4005fc:	84e5      	strh	r5, [r4, #38]	; 0x26
		_usb_d_dev_trans_done(&dev_inst.ep[i], USB_TRANS_RESET);
  4005fe:	47b0      	blx	r6
  400600:	2103      	movs	r1, #3
  400602:	f104 003c 	add.w	r0, r4, #60	; 0x3c
		dev_inst.ep[i].ep       = 0xFF;
  400606:	8765      	strh	r5, [r4, #58]	; 0x3a
		_usb_d_dev_trans_done(&dev_inst.ep[i], USB_TRANS_RESET);
  400608:	47b0      	blx	r6
  40060a:	2103      	movs	r1, #3
  40060c:	f104 0050 	add.w	r0, r4, #80	; 0x50
		dev_inst.ep[i].ep       = 0xFF;
  400610:	f8a4 504e 	strh.w	r5, [r4, #78]	; 0x4e
		_usb_d_dev_trans_done(&dev_inst.ep[i], USB_TRANS_RESET);
  400614:	47b0      	blx	r6
		dev_inst.ep[i].ep       = 0xFF;
  400616:	f8a4 5062 	strh.w	r5, [r4, #98]	; 0x62
}
  40061a:	bd70      	pop	{r4, r5, r6, pc}
  40061c:	40038000 	.word	0x40038000
  400620:	20400180 	.word	0x20400180
  400624:	004005a1 	.word	0x004005a1

00400628 <_usb_d_dev_dma_next>:
{
  400628:	e92d 41f0 	stmdb	sp!, {r4, r5, r6, r7, r8, lr}
	if (!ept->flags.bits.is_busy) {
  40062c:	7cc5      	ldrb	r5, [r0, #19]
  40062e:	066b      	lsls	r3, r5, #25
  400630:	d535      	bpl.n	40069e <_usb_d_dev_dma_next+0x76>
	uint8_t  epn = USB_EP_GET_N(ept->ep);
  400632:	7c84      	ldrb	r4, [r0, #18]
  400634:	f025 0c6f 	bic.w	ip, r5, #111	; 0x6f
	if (ept->trans_count != ept->trans_size) {
  400638:	e9d0 3101 	ldrd	r3, r1, [r0, #4]
	uint8_t  epn = USB_EP_GET_N(ept->ep);
  40063c:	f004 040f 	and.w	r4, r4, #15
	if (ept->trans_count != ept->trans_size) {
  400640:	4299      	cmp	r1, r3
  400642:	d039      	beq.n	4006b8 <_usb_d_dev_dma_next+0x90>
		trans_next = ept->trans_size - ept->trans_count;
  400644:	1a5b      	subs	r3, r3, r1
		if (trans_next > USB_D_DEV_TRANS_MAX) {
  400646:	f5b3 3f80 	cmp.w	r3, #65536	; 0x10000
			dma_ctrl = USBHS_DEVDMACONTROL_BUFF_LENGTH(trans_next);
  40064a:	bf92      	itee	ls
  40064c:	041a      	lslls	r2, r3, #16
			dma_ctrl = USBHS_DEVDMACONTROL_BUFF_LENGTH(0);
  40064e:	2200      	movhi	r2, #0
			trans_next = USB_D_DEV_TRANS_MAX;
  400650:	f44f 3380 	movhi.w	r3, #65536	; 0x10000
		if ((ept->flags.bits.dir) && (!ept->flags.bits.need_zlp)) {
  400654:	f1bc 0f80 	cmp.w	ip, #128	; 0x80
  400658:	d123      	bne.n	4006a2 <_usb_d_dev_dma_next+0x7a>
			dma_ctrl |= USBHS_DEVDMACONTROL_END_B_EN;
  40065a:	f042 0208 	orr.w	r2, r2, #8
		hri_usbhs_write_DEVDMAADDRESS_reg(hw, (epn - 1), (uint32_t)&ept->trans_buf[ept->trans_count]);
  40065e:	6805      	ldr	r5, [r0, #0]
  400660:	f104 3eff 	add.w	lr, r4, #4294967295	; 0xffffffff

static inline void hri_usbhs_write_DEVDMAADDRESS_reg(const void *const hw, uint8_t submodule_index,
                                                     hri_usbhs_devdmaaddress_reg_t data)
{
	USBHS_CRITICAL_SECTION_ENTER();
	((Usbhs *)hw)->UsbhsDevdma[submodule_index].USBHS_DEVDMAADDRESS = data;
  400664:	4e24      	ldr	r6, [pc, #144]	; (4006f8 <_usb_d_dev_dma_next+0xd0>)
  400666:	eb05 0801 	add.w	r8, r5, r1
  40066a:	fa5f f58e 	uxtb.w	r5, lr
  40066e:	f105 0731 	add.w	r7, r5, #49	; 0x31
	USBHS_CRITICAL_SECTION_LEAVE();
}

static inline bool hri_usbhs_get_DEVDMASTATUS_END_TR_ST_bit(const void *const hw, uint8_t submodule_index)
{
	return (((Usbhs *)hw)->UsbhsDevdma[submodule_index].USBHS_DEVDMASTATUS & USBHS_DEVDMASTATUS_END_TR_ST)
  400672:	eb06 1505 	add.w	r5, r6, r5, lsl #4
	((Usbhs *)hw)->UsbhsDevdma[submodule_index].USBHS_DEVDMAADDRESS = data;
  400676:	eb06 1707 	add.w	r7, r6, r7, lsl #4
  40067a:	f8c7 8004 	str.w	r8, [r7, #4]
	return (((Usbhs *)hw)->UsbhsDevdma[submodule_index].USBHS_DEVDMASTATUS & USBHS_DEVDMASTATUS_END_TR_ST)
  40067e:	f8d5 731c 	ldr.w	r7, [r5, #796]	; 0x31c
		if (!hri_usbhs_get_DEVDMASTATUS_END_TR_ST_bit(hw, (epn - 1))) {
  400682:	06ff      	lsls	r7, r7, #27
  400684:	d417      	bmi.n	4006b6 <_usb_d_dev_dma_next+0x8e>
			ept->trans_count += trans_next;
  400686:	4419      	add	r1, r3
		dma_ctrl |= USBHS_DEVDMACONTROL_END_BUFFIT | USBHS_DEVDMACONTROL_CHANN_ENB;
  400688:	f042 0221 	orr.w	r2, r2, #33	; 0x21
	((Usbhs *)hw)->UsbhsDevdma[submodule_index].USBHS_DEVDMACONTROL = data;
  40068c:	f8c5 2318 	str.w	r2, [r5, #792]	; 0x318
			ept->trans_load = trans_next;
  400690:	e9c0 1302 	strd	r1, r3, [r0, #8]
			hri_usbhs_set_DEVIMR_reg(hw, (USBHS_DEVIMR_DMA_1 << (epn - 1)));
  400694:	f04f 7300 	mov.w	r3, #33554432	; 0x2000000
  400698:	fa03 f30e 	lsl.w	r3, r3, lr
	((Usbhs *)hw)->USBHS_DEVIER = mask;
  40069c:	61b3      	str	r3, [r6, #24]
}
  40069e:	e8bd 81f0 	ldmia.w	sp!, {r4, r5, r6, r7, r8, pc}
			if ((ept->flags.bits.eptype != USB_D_EPTYPE_ISOCH) || (trans_next <= ept->size)) {
  4006a2:	f005 0507 	and.w	r5, r5, #7
  4006a6:	2d02      	cmp	r5, #2
  4006a8:	d102      	bne.n	4006b0 <_usb_d_dev_dma_next+0x88>
  4006aa:	8a05      	ldrh	r5, [r0, #16]
  4006ac:	429d      	cmp	r5, r3
  4006ae:	d3d6      	bcc.n	40065e <_usb_d_dev_dma_next+0x36>
				dma_ctrl |= USBHS_DEVDMACONTROL_END_TR_IT | USBHS_DEVDMACONTROL_END_TR_EN;
  4006b0:	f042 0214 	orr.w	r2, r2, #20
  4006b4:	e7d3      	b.n	40065e <_usb_d_dev_dma_next+0x36>
		ept->trans_size = ept->trans_count;
  4006b6:	6041      	str	r1, [r0, #4]
	if ((ept->flags.bits.dir) && (ept->flags.bits.need_zlp)) {
  4006b8:	f1bc 0f90 	cmp.w	ip, #144	; 0x90
  4006bc:	d116      	bne.n	4006ec <_usb_d_dev_dma_next+0xc4>
	((Usbhs *)hw)->USBHS_DEVEPTICR[index] = data;
  4006be:	00a3      	lsls	r3, r4, #2
  4006c0:	2201      	movs	r2, #1
  4006c2:	f103 4380 	add.w	r3, r3, #1073741824	; 0x40000000
  4006c6:	f503 3360 	add.w	r3, r3, #229376	; 0x38000
  4006ca:	f8c3 2160 	str.w	r2, [r3, #352]	; 0x160
	return (((Usbhs *)hw)->USBHS_DEVEPTISR[index] & USBHS_DEVEPTISR_RWALL) >> USBHS_DEVEPTISR_RWALL_Pos;
  4006ce:	f8d3 1130 	ldr.w	r1, [r3, #304]	; 0x130
		if (hri_usbhs_get_DEVEPTISR_RWALL_bit(hw, epn)) {
  4006d2:	03c9      	lsls	r1, r1, #15
  4006d4:	d501      	bpl.n	4006da <_usb_d_dev_dma_next+0xb2>
	((Usbhs *)hw)->USBHS_DEVEPTIFR[index] = data;
  4006d6:	f8c3 2190 	str.w	r2, [r3, #400]	; 0x190
	((Usbhs *)hw)->USBHS_DEVEPTIER[index] = data;
  4006da:	f8c3 21f0 	str.w	r2, [r3, #496]	; 0x1f0
		hri_usbhs_set_DEVIMR_reg(hw, (USBHS_DEVIER_PEP_0 << epn));
  4006de:	f44f 5380 	mov.w	r3, #4096	; 0x1000
  4006e2:	fa03 f404 	lsl.w	r4, r3, r4
	((Usbhs *)hw)->USBHS_DEVIER = mask;
  4006e6:	4b04      	ldr	r3, [pc, #16]	; (4006f8 <_usb_d_dev_dma_next+0xd0>)
  4006e8:	619c      	str	r4, [r3, #24]
		return;
  4006ea:	e7d8      	b.n	40069e <_usb_d_dev_dma_next+0x76>
	_usb_d_dev_trans_done(ept, USB_TRANS_DONE);
  4006ec:	2100      	movs	r1, #0
  4006ee:	4b03      	ldr	r3, [pc, #12]	; (4006fc <_usb_d_dev_dma_next+0xd4>)
}
  4006f0:	e8bd 41f0 	ldmia.w	sp!, {r4, r5, r6, r7, r8, lr}
	_usb_d_dev_trans_done(ept, USB_TRANS_DONE);
  4006f4:	4718      	bx	r3
  4006f6:	bf00      	nop
  4006f8:	40038000 	.word	0x40038000
  4006fc:	004005a1 	.word	0x004005a1

00400700 <_usb_d_dev_trans_stop>:
 * \param[in] dir Endpoint direction.
 * \param[in] code Information code passed.
 */
static void _usb_d_dev_trans_stop(struct _usb_d_dev_ep *ept, bool dir, const int32_t code)
{
	uint8_t epn = USB_EP_GET_N(ept->ep);
  400700:	7c83      	ldrb	r3, [r0, #18]

	if (!(_usb_d_dev_ep_is_used(ept) && _usb_d_dev_ep_is_busy(ept))) {
  400702:	2bff      	cmp	r3, #255	; 0xff
{
  400704:	b410      	push	{r4}
  400706:	460c      	mov	r4, r1
  400708:	4611      	mov	r1, r2
	if (!(_usb_d_dev_ep_is_used(ept) && _usb_d_dev_ep_is_busy(ept))) {
  40070a:	d011      	beq.n	400730 <_usb_d_dev_trans_stop+0x30>
  40070c:	7cc2      	ldrb	r2, [r0, #19]
  40070e:	0652      	lsls	r2, r2, #25
  400710:	d50e      	bpl.n	400730 <_usb_d_dev_trans_stop+0x30>
		return;
	}

	/* Stop transfer */
	if (dir) {
  400712:	f003 030f 	and.w	r3, r3, #15
  400716:	4a08      	ldr	r2, [pc, #32]	; (400738 <_usb_d_dev_trans_stop+0x38>)
  400718:	b13c      	cbz	r4, 40072a <_usb_d_dev_trans_stop+0x2a>
	((Usbhs *)hw)->USBHS_DEVEPTIFR[index] = data;
  40071a:	3364      	adds	r3, #100	; 0x64
  40071c:	2401      	movs	r4, #1
	((Usbhs *)hw)->USBHS_DEVEPTICR[index] = data;
  40071e:	f842 4023 	str.w	r4, [r2, r3, lsl #2]
	} else {
		/* NAK OUT */
		_usbd_ep_set_out_rdy(epn, false);
	}

	_usb_d_dev_trans_done(ept, code);
  400722:	4b06      	ldr	r3, [pc, #24]	; (40073c <_usb_d_dev_trans_stop+0x3c>)
}
  400724:	f85d 4b04 	ldr.w	r4, [sp], #4
	_usb_d_dev_trans_done(ept, code);
  400728:	4718      	bx	r3
  40072a:	3358      	adds	r3, #88	; 0x58
  40072c:	2402      	movs	r4, #2
  40072e:	e7f6      	b.n	40071e <_usb_d_dev_trans_stop+0x1e>
}
  400730:	f85d 4b04 	ldr.w	r4, [sp], #4
  400734:	4770      	bx	lr
  400736:	bf00      	nop
  400738:	40038000 	.word	0x40038000
  40073c:	004005a1 	.word	0x004005a1

00400740 <USBHS_Handler>:
	return ((Usbhs *)hw)->USBHS_DEVISR;
  400740:	4bb7      	ldr	r3, [pc, #732]	; (400a20 <USBHS_Handler+0x2e0>)
  400742:	6859      	ldr	r1, [r3, #4]
	return ((Usbhs *)hw)->USBHS_DEVIMR;
  400744:	691a      	ldr	r2, [r3, #16]
	flags = hri_usbhs_read_DEVISR_reg(hw) & hri_usbhs_read_DEVIMR_reg(hw);
  400746:	400a      	ands	r2, r1
{
  400748:	e92d 4ff0 	stmdb	sp!, {r4, r5, r6, r7, r8, r9, sl, fp, lr}
	ep_int = (flags & USBHS_DEVISR_PEP__Msk) >> USBHS_DEVISR_PEP__Pos;
  40074c:	f3c2 3109 	ubfx	r1, r2, #12, #10
{
  400750:	b085      	sub	sp, #20
	ep_int = (flags & USBHS_DEVISR_PEP__Msk) >> USBHS_DEVISR_PEP__Pos;
  400752:	9101      	str	r1, [sp, #4]
	dma_int = (flags & USBHS_DEVISR_DMA__Msk) >> USBHS_DEVISR_DMA__Pos;
  400754:	0e51      	lsrs	r1, r2, #25
  400756:	9102      	str	r1, [sp, #8]
	if ((ep_int == 0) && (dma_int == 0)) {
  400758:	9901      	ldr	r1, [sp, #4]
  40075a:	ea51 6252 	orrs.w	r2, r1, r2, lsr #25
  40075e:	d13c      	bne.n	4007da <USBHS_Handler+0x9a>
	return ((Usbhs *)hw)->USBHS_DEVISR;
  400760:	685a      	ldr	r2, [r3, #4]
	return ((Usbhs *)hw)->USBHS_DEVIMR;
  400762:	6919      	ldr	r1, [r3, #16]
	uint16_t flags = hri_usbhs_read_DEVISR_reg(USBHS);
  400764:	b292      	uxth	r2, r2
	flags &= hri_usbhs_read_DEVIMR_reg(USBHS);
  400766:	400a      	ands	r2, r1
	if (flags & USBHS_DEVISR_SOF) {
  400768:	0754      	lsls	r4, r2, #29
  40076a:	d507      	bpl.n	40077c <USBHS_Handler+0x3c>
	((Usbhs *)hw)->USBHS_DEVICR = data;
  40076c:	2204      	movs	r2, #4
  40076e:	609a      	str	r2, [r3, #8]
	dev_inst.callbacks.sof();
  400770:	4bac      	ldr	r3, [pc, #688]	; (400a24 <USBHS_Handler+0x2e4>)
  400772:	681b      	ldr	r3, [r3, #0]
}
  400774:	b005      	add	sp, #20
  400776:	e8bd 4ff0 	ldmia.w	sp!, {r4, r5, r6, r7, r8, r9, sl, fp, lr}
	dev_inst.callbacks.sof();
  40077a:	4718      	bx	r3
	} else if (flags & USBHS_DEVISR_MSOF) {
  40077c:	f012 0102 	ands.w	r1, r2, #2
  400780:	d001      	beq.n	400786 <USBHS_Handler+0x46>
  400782:	2202      	movs	r2, #2
  400784:	e7f3      	b.n	40076e <USBHS_Handler+0x2e>
	if (flags & USB_D_WAKEUP_INT_FLAGS) {
  400786:	f012 0570 	ands.w	r5, r2, #112	; 0x70
  40078a:	d00b      	beq.n	4007a4 <USBHS_Handler+0x64>
  40078c:	2270      	movs	r2, #112	; 0x70
	dev_inst.callbacks.event(USB_EV_WAKEUP, 0);
  40078e:	2002      	movs	r0, #2
  400790:	609a      	str	r2, [r3, #8]
	((Usbhs *)hw)->USBHS_DEVIDR = mask;
  400792:	615a      	str	r2, [r3, #20]
	((Usbhs *)hw)->USBHS_DEVIER = USBHS_DEVIMR_SUSPE;
  400794:	2201      	movs	r2, #1
  400796:	619a      	str	r2, [r3, #24]
  400798:	4ba2      	ldr	r3, [pc, #648]	; (400a24 <USBHS_Handler+0x2e4>)
  40079a:	685b      	ldr	r3, [r3, #4]
}
  40079c:	b005      	add	sp, #20
  40079e:	e8bd 4ff0 	ldmia.w	sp!, {r4, r5, r6, r7, r8, r9, sl, fp, lr}
	dev_inst.callbacks.event(USB_EV_SUSPEND, 0);
  4007a2:	4718      	bx	r3
	} else if (flags & USBHS_DEVISR_EORST) {
  4007a4:	f012 0108 	ands.w	r1, r2, #8
  4007a8:	d00c      	beq.n	4007c4 <USBHS_Handler+0x84>
	((Usbhs *)hw)->USBHS_DEVICR = data;
  4007aa:	2208      	movs	r2, #8
	((Usbhs *)hw)->USBHS_DEVIER = mask;
  4007ac:	2401      	movs	r4, #1
	((Usbhs *)hw)->USBHS_DEVICR = data;
  4007ae:	609a      	str	r2, [r3, #8]
	((Usbhs *)hw)->USBHS_DEVIDR = mask;
  4007b0:	2270      	movs	r2, #112	; 0x70
  4007b2:	615a      	str	r2, [r3, #20]
	((Usbhs *)hw)->USBHS_DEVIER = mask;
  4007b4:	619c      	str	r4, [r3, #24]
	_usb_d_dev_reset_epts();
  4007b6:	4b9c      	ldr	r3, [pc, #624]	; (400a28 <USBHS_Handler+0x2e8>)
  4007b8:	4798      	blx	r3
	dev_inst.callbacks.event(USB_EV_RESET, 0);
  4007ba:	4b9a      	ldr	r3, [pc, #616]	; (400a24 <USBHS_Handler+0x2e4>)
  4007bc:	4629      	mov	r1, r5
  4007be:	4620      	mov	r0, r4
  4007c0:	685b      	ldr	r3, [r3, #4]
  4007c2:	e7eb      	b.n	40079c <USBHS_Handler+0x5c>
	} else if (flags & USBHS_DEVISR_SUSP) {
  4007c4:	07d0      	lsls	r0, r2, #31
  4007c6:	d508      	bpl.n	4007da <USBHS_Handler+0x9a>
	((Usbhs *)hw)->USBHS_DEVICR = data;
  4007c8:	2201      	movs	r2, #1
	dev_inst.callbacks.event(USB_EV_SUSPEND, 0);
  4007ca:	2004      	movs	r0, #4
  4007cc:	609a      	str	r2, [r3, #8]
	((Usbhs *)hw)->USBHS_DEVIDR = mask;
  4007ce:	615a      	str	r2, [r3, #20]
	((Usbhs *)hw)->USBHS_DEVIER = mask;
  4007d0:	2270      	movs	r2, #112	; 0x70
  4007d2:	619a      	str	r2, [r3, #24]
  4007d4:	4b93      	ldr	r3, [pc, #588]	; (400a24 <USBHS_Handler+0x2e4>)
  4007d6:	685b      	ldr	r3, [r3, #4]
  4007d8:	e7e0      	b.n	40079c <USBHS_Handler+0x5c>
  4007da:	4c94      	ldr	r4, [pc, #592]	; (400a2c <USBHS_Handler+0x2ec>)
{
  4007dc:	2700      	movs	r7, #0
	return (((Usbhs *)hw)->UsbhsDevdma[submodule_index].USBHS_DEVDMASTATUS & USBHS_DEVDMASTATUS_CHANN_ENB)
  4007de:	f8df 9240 	ldr.w	r9, [pc, #576]	; 400a20 <USBHS_Handler+0x2e0>
			_usb_d_dev_handle_setup(ept);
  4007e2:	f8df a258 	ldr.w	sl, [pc, #600]	; 400a3c <USBHS_Handler+0x2fc>
		if (ept->ep == 0xFF) {
  4007e6:	7ca0      	ldrb	r0, [r4, #18]
  4007e8:	28ff      	cmp	r0, #255	; 0xff
  4007ea:	d05f      	beq.n	4008ac <USBHS_Handler+0x16c>
		if (ep_int) {
  4007ec:	9b01      	ldr	r3, [sp, #4]
  4007ee:	2b00      	cmp	r3, #0
  4007f0:	f000 8126 	beq.w	400a40 <USBHS_Handler+0x300>
	uint8_t epn = USB_EP_GET_N(ept->ep);
  4007f4:	f000 060f 	and.w	r6, r0, #15
	if (!(epint & (1u << epn))) {
  4007f8:	2101      	movs	r1, #1
  4007fa:	9a01      	ldr	r2, [sp, #4]
  4007fc:	fa01 f306 	lsl.w	r3, r1, r6
  400800:	4213      	tst	r3, r2
  400802:	d053      	beq.n	4008ac <USBHS_Handler+0x16c>
	return ((Usbhs *)hw)->USBHS_DEVEPTISR[index];
  400804:	00b5      	lsls	r5, r6, #2
  400806:	f105 4580 	add.w	r5, r5, #1073741824	; 0x40000000
  40080a:	f505 3560 	add.w	r5, r5, #229376	; 0x38000
  40080e:	f8d5 3130 	ldr.w	r3, [r5, #304]	; 0x130
	return ((Usbhs *)hw)->USBHS_DEVEPTIMR[index];
  400812:	f8d5 21c0 	ldr.w	r2, [r5, #448]	; 0x1c0
	flags = hri_usbhs_read_DEVEPTISR_reg(hw, epn);
  400816:	b2db      	uxtb	r3, r3
	if (flags) {
  400818:	4013      	ands	r3, r2
  40081a:	d047      	beq.n	4008ac <USBHS_Handler+0x16c>
		if (flags & USBHS_DEVEPTISR_STALLEDI) {
  40081c:	065a      	lsls	r2, r3, #25
  40081e:	d506      	bpl.n	40082e <USBHS_Handler+0xee>
	((Usbhs *)hw)->USBHS_DEVEPTIDR[index] = data;
  400820:	2340      	movs	r3, #64	; 0x40
  400822:	f8c5 3220 	str.w	r3, [r5, #544]	; 0x220
		_usb_d_dev_trans_done(ept, USB_TRANS_DONE);
  400826:	4620      	mov	r0, r4
  400828:	4b81      	ldr	r3, [pc, #516]	; (400a30 <USBHS_Handler+0x2f0>)
  40082a:	4798      	blx	r3
  40082c:	e03e      	b.n	4008ac <USBHS_Handler+0x16c>
		} else if (!_usb_d_dev_ep_is_busy(ept)) {
  40082e:	f894 8013 	ldrb.w	r8, [r4, #19]
  400832:	f018 0f40 	tst.w	r8, #64	; 0x40
  400836:	d104      	bne.n	400842 <USBHS_Handler+0x102>
		if (flags & USBHS_DEVEPTISR_RXSTPI) {
  400838:	0759      	lsls	r1, r3, #29
  40083a:	d537      	bpl.n	4008ac <USBHS_Handler+0x16c>
			_usb_d_dev_handle_setup(ept);
  40083c:	4620      	mov	r0, r4
  40083e:	47d0      	blx	sl
  400840:	e034      	b.n	4008ac <USBHS_Handler+0x16c>
		} else if (_usb_d_dev_ep_is_in(ept)) {
  400842:	f018 0f80 	tst.w	r8, #128	; 0x80
  400846:	d07e      	beq.n	400946 <USBHS_Handler+0x206>
	if (flags & USBHS_DEVEPTISR_TXINI) {
  400848:	07d9      	lsls	r1, r3, #31
  40084a:	f008 0b07 	and.w	fp, r8, #7
  40084e:	d576      	bpl.n	40093e <USBHS_Handler+0x1fe>
	uint16_t last_pkt = trans_count & ((ept->size == 1023) ? ept->size : (ept->size - 1));
  400850:	f240 33ff 	movw	r3, #1023	; 0x3ff
  400854:	f8b4 c010 	ldrh.w	ip, [r4, #16]
  400858:	459c      	cmp	ip, r3
	if (ept->trans_count >= ept->trans_size) {
  40085a:	e9d4 2101 	ldrd	r2, r1, [r4, #4]
	uint16_t last_pkt = trans_count & ((ept->size == 1023) ? ept->size : (ept->size - 1));
  40085e:	bf16      	itet	ne
  400860:	f10c 33ff 	addne.w	r3, ip, #4294967295	; 0xffffffff
  400864:	4663      	moveq	r3, ip
  400866:	b21b      	sxthne	r3, r3
	if (ept->trans_count >= ept->trans_size) {
  400868:	4291      	cmp	r1, r2
  40086a:	d34d      	bcc.n	400908 <USBHS_Handler+0x1c8>
		if (ept->flags.bits.need_zlp) {
  40086c:	f018 0f10 	tst.w	r8, #16
  400870:	d023      	beq.n	4008ba <USBHS_Handler+0x17a>
			ept->flags.bits.need_zlp = 0;
  400872:	4a6c      	ldr	r2, [pc, #432]	; (400a24 <USBHS_Handler+0x2e4>)
  400874:	2314      	movs	r3, #20
			ept->trans_load          = 0;
  400876:	2100      	movs	r1, #0
			if (!is_ctrl) {
  400878:	f1bb 0f01 	cmp.w	fp, #1
			ept->flags.bits.need_zlp = 0;
  40087c:	fb03 2307 	mla	r3, r3, r7, r2
			ept->trans_load          = 0;
  400880:	60e1      	str	r1, [r4, #12]
			ept->flags.bits.need_zlp = 0;
  400882:	f893 2027 	ldrb.w	r2, [r3, #39]	; 0x27
  400886:	f361 1204 	bfi	r2, r1, #4, #1
  40088a:	f883 2027 	strb.w	r2, [r3, #39]	; 0x27
	((Usbhs *)hw)->USBHS_DEVEPTICR[index] = data;
  40088e:	f04f 0301 	mov.w	r3, #1
  400892:	f8c5 3160 	str.w	r3, [r5, #352]	; 0x160
  400896:	f04f 0308 	mov.w	r3, #8
  40089a:	f8c5 3160 	str.w	r3, [r5, #352]	; 0x160
	((Usbhs *)hw)->USBHS_DEVEPTIER[index] = data;
  40089e:	f8c5 31f0 	str.w	r3, [r5, #496]	; 0x1f0
		if (!is_ctrl) {
  4008a2:	d003      	beq.n	4008ac <USBHS_Handler+0x16c>
	((Usbhs *)hw)->USBHS_DEVEPTIDR[index] = data;
  4008a4:	f44f 4380 	mov.w	r3, #16384	; 0x4000
  4008a8:	f8c5 3220 	str.w	r3, [r5, #544]	; 0x220
	for (i = 0; i < USB_D_N_EP; i++) {
  4008ac:	3701      	adds	r7, #1
  4008ae:	3414      	adds	r4, #20
  4008b0:	2f04      	cmp	r7, #4
  4008b2:	d198      	bne.n	4007e6 <USBHS_Handler+0xa6>
}
  4008b4:	b005      	add	sp, #20
  4008b6:	e8bd 8ff0 	ldmia.w	sp!, {r4, r5, r6, r7, r8, r9, sl, fp, pc}
  4008ba:	f04f 0e01 	mov.w	lr, #1
	uint16_t trans_count = ept->trans_load;
  4008be:	68e2      	ldr	r2, [r4, #12]
		if (!is_ctrl) {
  4008c0:	45f3      	cmp	fp, lr
  4008c2:	f8c5 e220 	str.w	lr, [r5, #544]	; 0x220
  4008c6:	d005      	beq.n	4008d4 <USBHS_Handler+0x194>
			hri_usbhs_clear_DEVIMR_reg(hw, (USBHS_DEVIER_PEP_0 << epn));
  4008c8:	f44f 5580 	mov.w	r5, #4096	; 0x1000
  4008cc:	fa05 f606 	lsl.w	r6, r5, r6
	((Usbhs *)hw)->USBHS_DEVIDR = mask;
  4008d0:	f8c9 6014 	str.w	r6, [r9, #20]
	uint16_t last_pkt = trans_count & ((ept->size == 1023) ? ept->size : (ept->size - 1));
  4008d4:	4013      	ands	r3, r2
		ept->trans_size = ept->trans_count;
  4008d6:	6061      	str	r1, [r4, #4]
		if (last_pkt == ept->size) {
  4008d8:	b29b      	uxth	r3, r3
  4008da:	459c      	cmp	ip, r3
  4008dc:	d112      	bne.n	400904 <USBHS_Handler+0x1c4>
			ept->flags.bits.is_busy = 0;
  4008de:	4a51      	ldr	r2, [pc, #324]	; (400a24 <USBHS_Handler+0x2e4>)
  4008e0:	2314      	movs	r3, #20
  4008e2:	fb03 2307 	mla	r3, r3, r7, r2
  4008e6:	f103 0520 	add.w	r5, r3, #32
  4008ea:	f893 3027 	ldrb.w	r3, [r3, #39]	; 0x27
  4008ee:	f36f 1386 	bfc	r3, #6, #1
  4008f2:	71eb      	strb	r3, [r5, #7]
			if (dev_inst.ep_callbacks.more(ept->ep, ept->trans_count)) {
  4008f4:	68d3      	ldr	r3, [r2, #12]
  4008f6:	4798      	blx	r3
  4008f8:	2800      	cmp	r0, #0
  4008fa:	d1d7      	bne.n	4008ac <USBHS_Handler+0x16c>
			ept->flags.bits.is_busy = 1;
  4008fc:	79eb      	ldrb	r3, [r5, #7]
  4008fe:	f043 0340 	orr.w	r3, r3, #64	; 0x40
  400902:	71eb      	strb	r3, [r5, #7]
		_usb_d_dev_trans_done(ept, USB_TRANS_DONE);
  400904:	2100      	movs	r1, #0
  400906:	e78e      	b.n	400826 <USBHS_Handler+0xe6>
		trans_next = ept->trans_size - ept->trans_count;
  400908:	eba2 0801 	sub.w	r8, r2, r1
	uint8_t *ptr_dest = (uint8_t *)&_usbd_ep_get_fifo_access(epn, 8);
  40090c:	03f0      	lsls	r0, r6, #15
		ptr_src = &ept->trans_buf[ept->trans_count];
  40090e:	6823      	ldr	r3, [r4, #0]
		trans_next = ept->trans_size - ept->trans_count;
  400910:	fa1f f888 	uxth.w	r8, r8
		memcpy(ptr_dest, ptr_src, trans_next);
  400914:	f100 4020 	add.w	r0, r0, #2684354560	; 0xa0000000
  400918:	4419      	add	r1, r3
  40091a:	4b46      	ldr	r3, [pc, #280]	; (400a34 <USBHS_Handler+0x2f4>)
  40091c:	45e0      	cmp	r8, ip
  40091e:	f500 1080 	add.w	r0, r0, #1048576	; 0x100000
  400922:	bf28      	it	cs
  400924:	46e0      	movcs	r8, ip
  400926:	4642      	mov	r2, r8
  400928:	4798      	blx	r3
		ept->trans_count += trans_next;
  40092a:	68a2      	ldr	r2, [r4, #8]
	((Usbhs *)hw)->USBHS_DEVEPTICR[index] = data;
  40092c:	2301      	movs	r3, #1
		ept->trans_load = trans_next;
  40092e:	f8c4 800c 	str.w	r8, [r4, #12]
		ept->trans_count += trans_next;
  400932:	4442      	add	r2, r8
		if (!is_ctrl) {
  400934:	459b      	cmp	fp, r3
		ept->trans_count += trans_next;
  400936:	60a2      	str	r2, [r4, #8]
  400938:	f8c5 3160 	str.w	r3, [r5, #352]	; 0x160
		if (!is_ctrl) {
  40093c:	e7b1      	b.n	4008a2 <USBHS_Handler+0x162>
	} else if (_usb_d_dev_ep_is_ctrl(ept)) {
  40093e:	f1bb 0f01 	cmp.w	fp, #1
	} else if (_usb_d_dev_ep_is_ctrl(ept)) {
  400942:	d1b3      	bne.n	4008ac <USBHS_Handler+0x16c>
  400944:	e778      	b.n	400838 <USBHS_Handler+0xf8>
	if (flags & USBHS_DEVEPTISR_OVERFI) {
  400946:	069a      	lsls	r2, r3, #26
  400948:	d50e      	bpl.n	400968 <USBHS_Handler+0x228>
  40094a:	2320      	movs	r3, #32
	_usb_d_dev_trans_stop(ept, _usb_d_dev_ep_is_in(ept), USB_TRANS_ERROR);
  40094c:	4a35      	ldr	r2, [pc, #212]	; (400a24 <USBHS_Handler+0x2e4>)
  40094e:	4620      	mov	r0, r4
  400950:	f8c5 3160 	str.w	r3, [r5, #352]	; 0x160
  400954:	2314      	movs	r3, #20
  400956:	fb03 2307 	mla	r3, r3, r7, r2
  40095a:	2204      	movs	r2, #4
  40095c:	f893 1027 	ldrb.w	r1, [r3, #39]	; 0x27
  400960:	4b35      	ldr	r3, [pc, #212]	; (400a38 <USBHS_Handler+0x2f8>)
  400962:	09c9      	lsrs	r1, r1, #7
  400964:	4798      	blx	r3
}
  400966:	e7a1      	b.n	4008ac <USBHS_Handler+0x16c>
	} else if (flags & USBHS_DEVEPTISR_RXOUTI) {
  400968:	0798      	lsls	r0, r3, #30
  40096a:	f008 0807 	and.w	r8, r8, #7
  40096e:	d553      	bpl.n	400a18 <USBHS_Handler+0x2d8>
	tmp = ((Usbhs *)hw)->USBHS_DEVEPTISR[index];
  400970:	f8d5 1130 	ldr.w	r1, [r5, #304]	; 0x130
	((Usbhs *)hw)->USBHS_DEVEPTICR[index] = data;
  400974:	2202      	movs	r2, #2
	return (hri_usbhs_get_DEVEPTISR_reg(USBHS, epn, USBHS_DEVEPTISR_BYCT_Msk) >> USBHS_DEVEPTISR_BYCT_Pos);
  400976:	f3c1 510a 	ubfx	r1, r1, #20, #11
	uint16_t last_remain = ept->trans_size - ept->trans_count;
  40097a:	e9d4 3001 	ldrd	r3, r0, [r4, #4]
  40097e:	f8c5 2160 	str.w	r2, [r5, #352]	; 0x160
	if (last_trans > 0) {
  400982:	2900      	cmp	r1, #0
  400984:	d03b      	beq.n	4009fe <USBHS_Handler+0x2be>
	uint16_t last_remain = ept->trans_size - ept->trans_count;
  400986:	1a1b      	subs	r3, r3, r0
	return (hri_usbhs_get_DEVEPTISR_reg(USBHS, epn, USBHS_DEVEPTISR_BYCT_Msk) >> USBHS_DEVEPTISR_BYCT_Pos);
  400988:	b28a      	uxth	r2, r1
	uint16_t last_remain = ept->trans_size - ept->trans_count;
  40098a:	b29b      	uxth	r3, r3
		if (last_trans > last_remain) {
  40098c:	4299      	cmp	r1, r3
	uint8_t *ptr         = (uint8_t *)&_usbd_ep_get_fifo_access(epn, 8);
  40098e:	ea4f 31c6 	mov.w	r1, r6, lsl #15
		if (last_trans > last_remain) {
  400992:	bf88      	it	hi
  400994:	461a      	movhi	r2, r3
		memcpy(&ept->trans_buf[ept->trans_count], ptr, last_trans);
  400996:	f101 4120 	add.w	r1, r1, #2684354560	; 0xa0000000
  40099a:	6823      	ldr	r3, [r4, #0]
		if (last_trans > last_remain) {
  40099c:	bf98      	it	ls
  40099e:	f04f 0b00 	movls.w	fp, #0
		memcpy(&ept->trans_buf[ept->trans_count], ptr, last_trans);
  4009a2:	f501 1180 	add.w	r1, r1, #1048576	; 0x100000
  4009a6:	9203      	str	r2, [sp, #12]
  4009a8:	4418      	add	r0, r3
  4009aa:	4b22      	ldr	r3, [pc, #136]	; (400a34 <USBHS_Handler+0x2f4>)
		if (last_trans > last_remain) {
  4009ac:	bf88      	it	hi
  4009ae:	f04f 0b01 	movhi.w	fp, #1
		memcpy(&ept->trans_buf[ept->trans_count], ptr, last_trans);
  4009b2:	4798      	blx	r3
		ept->trans_count += last_trans;
  4009b4:	68a3      	ldr	r3, [r4, #8]
  4009b6:	9a03      	ldr	r2, [sp, #12]
  4009b8:	4413      	add	r3, r2
		ept->trans_load = last_trans;
  4009ba:	e9c4 3202 	strd	r3, r2, [r4, #8]
	((Usbhs *)hw)->USBHS_DEVEPTIDR[index] = data;
  4009be:	f44f 4380 	mov.w	r3, #16384	; 0x4000
  4009c2:	f8c5 3220 	str.w	r3, [r5, #544]	; 0x220
	if (last_trans < ept->size) {
  4009c6:	8a23      	ldrh	r3, [r4, #16]
  4009c8:	4293      	cmp	r3, r2
  4009ca:	d91c      	bls.n	400a06 <USBHS_Handler+0x2c6>
		ept->flags.bits.need_zlp = 0;
  4009cc:	4a15      	ldr	r2, [pc, #84]	; (400a24 <USBHS_Handler+0x2e4>)
  4009ce:	2314      	movs	r3, #20
  4009d0:	fb03 2307 	mla	r3, r3, r7, r2
  4009d4:	f893 2027 	ldrb.w	r2, [r3, #39]	; 0x27
  4009d8:	f36f 1204 	bfc	r2, #4, #1
  4009dc:	f883 2027 	strb.w	r2, [r3, #39]	; 0x27
  4009e0:	2302      	movs	r3, #2
		if (!is_ctrl) {
  4009e2:	f1b8 0f01 	cmp.w	r8, #1
  4009e6:	f8c5 3220 	str.w	r3, [r5, #544]	; 0x220
  4009ea:	d005      	beq.n	4009f8 <USBHS_Handler+0x2b8>
			hri_usbhs_clear_DEVIMR_reg(hw, (USBHS_DEVIER_PEP_0 << epn));
  4009ec:	f44f 5080 	mov.w	r0, #4096	; 0x1000
  4009f0:	fa00 f606 	lsl.w	r6, r0, r6
	((Usbhs *)hw)->USBHS_DEVIDR = mask;
  4009f4:	f8c9 6014 	str.w	r6, [r9, #20]
		ept->trans_size = ept->trans_count;
  4009f8:	68a3      	ldr	r3, [r4, #8]
  4009fa:	6063      	str	r3, [r4, #4]
  4009fc:	e782      	b.n	400904 <USBHS_Handler+0x1c4>
	bool     is_full = false, is_short = false;
  4009fe:	f04f 0b00 	mov.w	fp, #0
  400a02:	465a      	mov	r2, fp
  400a04:	e7df      	b.n	4009c6 <USBHS_Handler+0x286>
	} else if (ept->trans_count >= ept->trans_size) {
  400a06:	e9d4 3201 	ldrd	r3, r2, [r4, #4]
  400a0a:	429a      	cmp	r2, r3
  400a0c:	d2e8      	bcs.n	4009e0 <USBHS_Handler+0x2a0>
	if (is_full || is_short) {
  400a0e:	f1bb 0f00 	cmp.w	fp, #0
  400a12:	f43f af4b 	beq.w	4008ac <USBHS_Handler+0x16c>
  400a16:	e7e3      	b.n	4009e0 <USBHS_Handler+0x2a0>
	} else if (_usb_d_dev_ep_is_ctrl(ept)) {
  400a18:	f1b8 0f01 	cmp.w	r8, #1
  400a1c:	e791      	b.n	400942 <USBHS_Handler+0x202>
  400a1e:	bf00      	nop
  400a20:	40038000 	.word	0x40038000
  400a24:	20400180 	.word	0x20400180
  400a28:	004005cd 	.word	0x004005cd
  400a2c:	20400194 	.word	0x20400194
  400a30:	004005a1 	.word	0x004005a1
  400a34:	004020fd 	.word	0x004020fd
  400a38:	00400701 	.word	0x00400701
  400a3c:	00400529 	.word	0x00400529
		else if ((dma_int) && (_usb_d_dev_ep_is_dma(i))) {
  400a40:	9b02      	ldr	r3, [sp, #8]
  400a42:	2b00      	cmp	r3, #0
  400a44:	f43f af32 	beq.w	4008ac <USBHS_Handler+0x16c>
  400a48:	1e7b      	subs	r3, r7, #1
  400a4a:	b2db      	uxtb	r3, r3
  400a4c:	2b05      	cmp	r3, #5
  400a4e:	f63f af2d 	bhi.w	4008ac <USBHS_Handler+0x16c>
	if (!(epint & (1u << (epn - 1)))) {
  400a52:	f000 000f 	and.w	r0, r0, #15
  400a56:	2301      	movs	r3, #1
  400a58:	9a02      	ldr	r2, [sp, #8]
  400a5a:	3801      	subs	r0, #1
  400a5c:	4083      	lsls	r3, r0
  400a5e:	4213      	tst	r3, r2
  400a60:	f43f af24 	beq.w	4008ac <USBHS_Handler+0x16c>
	return (((Usbhs *)hw)->UsbhsDevdma[submodule_index].USBHS_DEVDMASTATUS & USBHS_DEVDMASTATUS_CHANN_ENB)
  400a64:	b2c3      	uxtb	r3, r0
  400a66:	eb09 1303 	add.w	r3, r9, r3, lsl #4
  400a6a:	f8d3 231c 	ldr.w	r2, [r3, #796]	; 0x31c
	if (hri_usbhs_get_DEVDMASTATUS_CHANN_ENB_bit(hw, (epn - 1))) {
  400a6e:	07d2      	lsls	r2, r2, #31
  400a70:	f53f af1c 	bmi.w	4008ac <USBHS_Handler+0x16c>
	hri_usbhs_clear_DEVIMR_reg(hw, (USBHS_DEVIMR_DMA_1 << (epn - 1)));
  400a74:	f04f 7200 	mov.w	r2, #33554432	; 0x2000000
  400a78:	fa02 f000 	lsl.w	r0, r2, r0
	((Usbhs *)hw)->USBHS_DEVIDR = mask;
  400a7c:	f8c9 0014 	str.w	r0, [r9, #20]
	_usb_d_dev_dma_next(ept);
  400a80:	4620      	mov	r0, r4
}

static inline hri_usbhs_devdmastatus_reg_t hri_usbhs_read_DEVDMASTATUS_BUFF_COUNT_bf(const void *const hw,
                                                                                     uint8_t           submodule_index)
{
	return (((Usbhs *)hw)->UsbhsDevdma[submodule_index].USBHS_DEVDMASTATUS & USBHS_DEVDMASTATUS_BUFF_COUNT_Msk)
  400a82:	f8d3 231c 	ldr.w	r2, [r3, #796]	; 0x31c
	if (trans_next) {
  400a86:	0c12      	lsrs	r2, r2, #16
		ept->trans_count -= trans_next;
  400a88:	bf1e      	ittt	ne
  400a8a:	68a3      	ldrne	r3, [r4, #8]
  400a8c:	1a9b      	subne	r3, r3, r2
		ept->trans_size = ept->trans_count;
  400a8e:	e9c4 3301 	strdne	r3, r3, [r4, #4]
	_usb_d_dev_dma_next(ept);
  400a92:	4b01      	ldr	r3, [pc, #4]	; (400a98 <USBHS_Handler+0x358>)
  400a94:	4798      	blx	r3
  400a96:	e709      	b.n	4008ac <USBHS_Handler+0x16c>
  400a98:	00400629 	.word	0x00400629

00400a9c <_usb_d_dev_init>:
{
  400a9c:	b538      	push	{r3, r4, r5, lr}
	tmp = ((Usbhs *)hw)->USBHS_CTRL;
  400a9e:	4d0e      	ldr	r5, [pc, #56]	; (400ad8 <_usb_d_dev_init+0x3c>)
  400aa0:	f8d5 3800 	ldr.w	r3, [r5, #2048]	; 0x800
	if (hri_usbhs_get_CTRL_USBE_bit(hw)) {
  400aa4:	f3c3 34c0 	ubfx	r4, r3, #15, #1
  400aa8:	041b      	lsls	r3, r3, #16
  400aaa:	d412      	bmi.n	400ad2 <_usb_d_dev_init+0x36>
	dev_inst.callbacks.sof   = (_usb_d_dev_sof_cb_t)_dummy_func_no_return;
  400aac:	4b0b      	ldr	r3, [pc, #44]	; (400adc <_usb_d_dev_init+0x40>)
  400aae:	4a0c      	ldr	r2, [pc, #48]	; (400ae0 <_usb_d_dev_init+0x44>)
	dev_inst.ep_callbacks.more  = (_usb_d_dev_ep_cb_more_t)_dummy_func_return_false;
  400ab0:	490c      	ldr	r1, [pc, #48]	; (400ae4 <_usb_d_dev_init+0x48>)
	dev_inst.ep_callbacks.setup = (_usb_d_dev_ep_cb_setup_t)_dummy_func_no_return;
  400ab2:	609a      	str	r2, [r3, #8]
	dev_inst.callbacks.event = (_usb_d_dev_event_cb_t)_dummy_func_no_return;
  400ab4:	e9c3 2200 	strd	r2, r2, [r3]
	dev_inst.ep_callbacks.done  = (_usb_d_dev_ep_cb_done_t)_dummy_func_no_return;
  400ab8:	e9c3 1203 	strd	r1, r2, [r3, #12]
	_usb_d_dev_reset_epts();
  400abc:	4b0a      	ldr	r3, [pc, #40]	; (400ae8 <_usb_d_dev_init+0x4c>)
  400abe:	4798      	blx	r3
	((Usbhs *)hw)->USBHS_CTRL = data;
  400ac0:	f04f 7300 	mov.w	r3, #33554432	; 0x2000000
	return ERR_NONE;
  400ac4:	4620      	mov	r0, r4
  400ac6:	f8c5 3800 	str.w	r3, [r5, #2048]	; 0x800
	((Usbhs *)hw)->USBHS_DEVCTRL = data;
  400aca:	f44f 6350 	mov.w	r3, #3328	; 0xd00
  400ace:	602b      	str	r3, [r5, #0]
}
  400ad0:	bd38      	pop	{r3, r4, r5, pc}
		return ERR_DENIED;
  400ad2:	f06f 0010 	mvn.w	r0, #16
  400ad6:	e7fb      	b.n	400ad0 <_usb_d_dev_init+0x34>
  400ad8:	40038000 	.word	0x40038000
  400adc:	20400180 	.word	0x20400180
  400ae0:	00400521 	.word	0x00400521
  400ae4:	00400523 	.word	0x00400523
  400ae8:	004005cd 	.word	0x004005cd

00400aec <_usb_d_dev_enable>:
	tmp = ((Usbhs *)hw)->USBHS_CTRL;
  400aec:	4b0d      	ldr	r3, [pc, #52]	; (400b24 <_usb_d_dev_enable+0x38>)
  400aee:	f8d3 2800 	ldr.w	r2, [r3, #2048]	; 0x800
	if (!(hri_usbhs_get_CTRL_USBE_bit(hw))) {
  400af2:	0411      	lsls	r1, r2, #16
  400af4:	d40b      	bmi.n	400b0e <_usb_d_dev_enable+0x22>
	((Usbhs *)hw)->USBHS_CTRL &= ~USBHS_CTRL_FRZCLK;
  400af6:	f8d3 2800 	ldr.w	r2, [r3, #2048]	; 0x800
  400afa:	f422 4280 	bic.w	r2, r2, #16384	; 0x4000
  400afe:	f8c3 2800 	str.w	r2, [r3, #2048]	; 0x800
	((Usbhs *)hw)->USBHS_CTRL |= USBHS_CTRL_USBE;
  400b02:	f8d3 2800 	ldr.w	r2, [r3, #2048]	; 0x800
  400b06:	f442 4200 	orr.w	r2, r2, #32768	; 0x8000
  400b0a:	f8c3 2800 	str.w	r2, [r3, #2048]	; 0x800
	return (((Usbhs *)hw)->USBHS_SR & USBHS_SR_CLKUSABLE) >> USBHS_SR_CLKUSABLE_Pos;
  400b0e:	f8d3 2804 	ldr.w	r2, [r3, #2052]	; 0x804
	while (!hri_usbhs_get_SR_CLKUSABLE_bit(hw)) {
  400b12:	0452      	lsls	r2, r2, #17
  400b14:	d5fb      	bpl.n	400b0e <_usb_d_dev_enable+0x22>
	((Usbhs *)hw)->USBHS_DEVIER = mask;
  400b16:	221d      	movs	r2, #29
}
  400b18:	2000      	movs	r0, #0
  400b1a:	619a      	str	r2, [r3, #24]
 */
__STATIC_INLINE void __NVIC_EnableIRQ(IRQn_Type IRQn)
{
  if ((int32_t)(IRQn) >= 0)
  {
    NVIC->ISER[(((uint32_t)IRQn) >> 5UL)] = (uint32_t)(1UL << (((uint32_t)IRQn) & 0x1FUL));
  400b1c:	2204      	movs	r2, #4
  400b1e:	4b02      	ldr	r3, [pc, #8]	; (400b28 <_usb_d_dev_enable+0x3c>)
  400b20:	605a      	str	r2, [r3, #4]
  400b22:	4770      	bx	lr
  400b24:	40038000 	.word	0x40038000
  400b28:	e000e100 	.word	0xe000e100

00400b2c <_usb_d_dev_attach>:
	((Usbhs *)hw)->USBHS_DEVCTRL &= ~USBHS_DEVCTRL_DETACH;
  400b2c:	4a02      	ldr	r2, [pc, #8]	; (400b38 <_usb_d_dev_attach+0xc>)
  400b2e:	6813      	ldr	r3, [r2, #0]
  400b30:	f423 7380 	bic.w	r3, r3, #256	; 0x100
  400b34:	6013      	str	r3, [r2, #0]
}
  400b36:	4770      	bx	lr
  400b38:	40038000 	.word	0x40038000

00400b3c <_usb_d_dev_get_speed>:
{
  400b3c:	b082      	sub	sp, #8
	const enum usb_speed speed[3] = {USB_SPEED_FS, USB_SPEED_HS, USB_SPEED_LS};
  400b3e:	f240 2201 	movw	r2, #513	; 0x201
	return ((Usbhs *)hw)->USBHS_SR;
  400b42:	4b08      	ldr	r3, [pc, #32]	; (400b64 <_usb_d_dev_get_speed+0x28>)
  400b44:	f8d3 3804 	ldr.w	r3, [r3, #2052]	; 0x804
  400b48:	f8ad 2004 	strh.w	r2, [sp, #4]
  400b4c:	2200      	movs	r2, #0
	sp                            = (enum usb_speed)((sp & USBHS_SR_SPEED_Msk) >> USBHS_SR_SPEED_Pos);
  400b4e:	f3c3 3301 	ubfx	r3, r3, #12, #2
	const enum usb_speed speed[3] = {USB_SPEED_FS, USB_SPEED_HS, USB_SPEED_LS};
  400b52:	f88d 2006 	strb.w	r2, [sp, #6]
	return speed[sp];
  400b56:	aa02      	add	r2, sp, #8
  400b58:	4413      	add	r3, r2
}
  400b5a:	f813 0c04 	ldrb.w	r0, [r3, #-4]
  400b5e:	b002      	add	sp, #8
  400b60:	4770      	bx	lr
  400b62:	bf00      	nop
  400b64:	40038000 	.word	0x40038000

00400b68 <_usb_d_dev_set_address>:
	tmp = ((Usbhs *)hw)->USBHS_DEVCTRL;
  400b68:	4b06      	ldr	r3, [pc, #24]	; (400b84 <_usb_d_dev_set_address+0x1c>)
	tmp |= USBHS_DEVCTRL_UADD(data);
  400b6a:	f000 007f 	and.w	r0, r0, #127	; 0x7f
	tmp = ((Usbhs *)hw)->USBHS_DEVCTRL;
  400b6e:	681a      	ldr	r2, [r3, #0]
	tmp &= ~USBHS_DEVCTRL_UADD_Msk;
  400b70:	f022 027f 	bic.w	r2, r2, #127	; 0x7f
	tmp |= USBHS_DEVCTRL_UADD(data);
  400b74:	4310      	orrs	r0, r2
	((Usbhs *)hw)->USBHS_DEVCTRL = tmp;
  400b76:	6018      	str	r0, [r3, #0]
	((Usbhs *)hw)->USBHS_DEVCTRL |= USBHS_DEVCTRL_ADDEN;
  400b78:	681a      	ldr	r2, [r3, #0]
  400b7a:	f042 0280 	orr.w	r2, r2, #128	; 0x80
  400b7e:	601a      	str	r2, [r3, #0]
}
  400b80:	4770      	bx	lr
  400b82:	bf00      	nop
  400b84:	40038000 	.word	0x40038000

00400b88 <_usb_d_dev_ep_init>:
{
  400b88:	e92d 47f0 	stmdb	sp!, {r4, r5, r6, r7, r8, r9, sl, lr}
  400b8c:	4614      	mov	r4, r2
	ASSERT(max_pkt_siz < 1024);
  400b8e:	f240 3aff 	movw	sl, #1023	; 0x3ff
{
  400b92:	4606      	mov	r6, r0
	uint8_t               epn = USB_EP_GET_N(ep);
  400b94:	f000 050f 	and.w	r5, r0, #15
	ASSERT(max_pkt_siz < 1024);
  400b98:	4554      	cmp	r4, sl
	bool                  dir = USB_EP_GET_DIR(ep);
  400b9a:	ea4f 17d0 	mov.w	r7, r0, lsr #7
{
  400b9e:	4689      	mov	r9, r1
	ASSERT(max_pkt_siz < 1024);
  400ba0:	f240 42d5 	movw	r2, #1237	; 0x4d5
  400ba4:	bf8c      	ite	hi
  400ba6:	2000      	movhi	r0, #0
  400ba8:	2001      	movls	r0, #1
  400baa:	493d      	ldr	r1, [pc, #244]	; (400ca0 <_usb_d_dev_ep_init+0x118>)
  400bac:	f8df 80f8 	ldr.w	r8, [pc, #248]	; 400ca8 <_usb_d_dev_ep_init+0x120>
  400bb0:	47c0      	blx	r8
	ASSERT((max_pkt_siz == 1023) || !(max_pkt_siz & (max_pkt_siz - 1)));
  400bb2:	4554      	cmp	r4, sl
  400bb4:	d059      	beq.n	400c6a <_usb_d_dev_ep_init+0xe2>
  400bb6:	1e63      	subs	r3, r4, #1
  400bb8:	4223      	tst	r3, r4
  400bba:	bf0c      	ite	eq
  400bbc:	2001      	moveq	r0, #1
  400bbe:	2000      	movne	r0, #0
  400bc0:	f240 42d6 	movw	r2, #1238	; 0x4d6
  400bc4:	4936      	ldr	r1, [pc, #216]	; (400ca0 <_usb_d_dev_ep_init+0x118>)
  400bc6:	47c0      	blx	r8
	ASSERT(max_pkt_siz >= 8);
  400bc8:	2c07      	cmp	r4, #7
  400bca:	4935      	ldr	r1, [pc, #212]	; (400ca0 <_usb_d_dev_ep_init+0x118>)
  400bcc:	f240 42d7 	movw	r2, #1239	; 0x4d7
  400bd0:	bf94      	ite	ls
  400bd2:	2000      	movls	r0, #0
  400bd4:	2001      	movhi	r0, #1
  400bd6:	47c0      	blx	r8
	if (epn > CONF_USB_D_MAX_EP_N) {
  400bd8:	f016 0f0c 	tst.w	r6, #12
	uint8_t ep_type = attr & USB_EP_XTYPE_MASK;
  400bdc:	f009 0103 	and.w	r1, r9, #3
	if (epn > CONF_USB_D_MAX_EP_N) {
  400be0:	d157      	bne.n	400c92 <_usb_d_dev_ep_init+0x10a>
	if (ept->ep != 0xFF) {
  400be2:	4830      	ldr	r0, [pc, #192]	; (400ca4 <_usb_d_dev_ep_init+0x11c>)
  400be4:	2314      	movs	r3, #20
  400be6:	fb03 0305 	mla	r3, r3, r5, r0
  400bea:	f893 3026 	ldrb.w	r3, [r3, #38]	; 0x26
  400bee:	2bff      	cmp	r3, #255	; 0xff
  400bf0:	d152      	bne.n	400c98 <_usb_d_dev_ep_init+0x110>
	return ((Usbhs *)hw)->USBHS_DEVEPTCFG[index];
  400bf2:	00aa      	lsls	r2, r5, #2
  400bf4:	f102 4280 	add.w	r2, r2, #1073741824	; 0x40000000
  400bf8:	f502 3260 	add.w	r2, r2, #229376	; 0x38000
  400bfc:	f8d2 3100 	ldr.w	r3, [r2, #256]	; 0x100
	data &= ~(USBHS_DEVEPTCFG_EPBK_Msk | USBHS_DEVEPTCFG_EPSIZE_Msk | USBHS_DEVEPTCFG_EPDIR
  400c00:	f423 5ecb 	bic.w	lr, r3, #6496	; 0x1960
	switch (ep_type) {
  400c04:	1e4b      	subs	r3, r1, #1
  400c06:	2b01      	cmp	r3, #1
	data &= ~(USBHS_DEVEPTCFG_EPBK_Msk | USBHS_DEVEPTCFG_EPSIZE_Msk | USBHS_DEVEPTCFG_EPDIR
  400c08:	f02e 0e1c 	bic.w	lr, lr, #28
	switch (ep_type) {
  400c0c:	bf8c      	ite	hi
  400c0e:	2300      	movhi	r3, #0
  400c10:	2301      	movls	r3, #1
	        : ((n > 256) ? 6 : ((n > 128) ? 5 : ((n > 64) ? 4 : ((n > 32) ? 3 : ((n > 16) ? 2 : ((n > 8) ? 1 : 0)))))));
  400c12:	f5b4 7f00 	cmp.w	r4, #512	; 0x200
	data |= USBHS_DEVEPTCFG_EPBK(bank) | USBHS_DEVEPTCFG_EPSIZE(_usbd_ep_pcksize_size(max_pkt_siz))
  400c16:	ea4f 0383 	mov.w	r3, r3, lsl #2
	        : ((n > 256) ? 6 : ((n > 128) ? 5 : ((n > 64) ? 4 : ((n > 32) ? 3 : ((n > 16) ? 2 : ((n > 8) ? 1 : 0)))))));
  400c1a:	d828      	bhi.n	400c6e <_usb_d_dev_ep_init+0xe6>
  400c1c:	f5b4 7f80 	cmp.w	r4, #256	; 0x100
  400c20:	d828      	bhi.n	400c74 <_usb_d_dev_ep_init+0xec>
  400c22:	2c80      	cmp	r4, #128	; 0x80
  400c24:	d829      	bhi.n	400c7a <_usb_d_dev_ep_init+0xf2>
  400c26:	2c40      	cmp	r4, #64	; 0x40
  400c28:	d82a      	bhi.n	400c80 <_usb_d_dev_ep_init+0xf8>
  400c2a:	2c20      	cmp	r4, #32
  400c2c:	d82b      	bhi.n	400c86 <_usb_d_dev_ep_init+0xfe>
  400c2e:	2c10      	cmp	r4, #16
  400c30:	d82c      	bhi.n	400c8c <_usb_d_dev_ep_init+0x104>
  400c32:	2c08      	cmp	r4, #8
  400c34:	bf94      	ite	ls
  400c36:	f04f 0c00 	movls.w	ip, #0
  400c3a:	f04f 0c01 	movhi.w	ip, #1
  400c3e:	ea43 030e 	orr.w	r3, r3, lr
  400c42:	ea43 23c1 	orr.w	r3, r3, r1, lsl #11
	ept->flags.u8 = (ep_type + 1);
  400c46:	3101      	adds	r1, #1
  400c48:	ea43 2307 	orr.w	r3, r3, r7, lsl #8
	data |= USBHS_DEVEPTCFG_EPBK(bank) | USBHS_DEVEPTCFG_EPSIZE(_usbd_ep_pcksize_size(max_pkt_siz))
  400c4c:	ea43 130c 	orr.w	r3, r3, ip, lsl #4
	((Usbhs *)hw)->USBHS_DEVEPTCFG[index] = data;
  400c50:	f8c2 3100 	str.w	r3, [r2, #256]	; 0x100
	ept->size     = max_pkt_siz;
  400c54:	2314      	movs	r3, #20
  400c56:	fb03 0505 	mla	r5, r3, r5, r0
	return USB_OK;
  400c5a:	2000      	movs	r0, #0
	ept->size     = max_pkt_siz;
  400c5c:	84ac      	strh	r4, [r5, #36]	; 0x24
	ept->flags.u8 = (ep_type + 1);
  400c5e:	f885 1027 	strb.w	r1, [r5, #39]	; 0x27
	ept->ep       = ep;
  400c62:	f885 6026 	strb.w	r6, [r5, #38]	; 0x26
}
  400c66:	e8bd 87f0 	ldmia.w	sp!, {r4, r5, r6, r7, r8, r9, sl, pc}
	ASSERT((max_pkt_siz == 1023) || !(max_pkt_siz & (max_pkt_siz - 1)));
  400c6a:	2001      	movs	r0, #1
  400c6c:	e7a8      	b.n	400bc0 <_usb_d_dev_ep_init+0x38>
	        : ((n > 256) ? 6 : ((n > 128) ? 5 : ((n > 64) ? 4 : ((n > 32) ? 3 : ((n > 16) ? 2 : ((n > 8) ? 1 : 0)))))));
  400c6e:	f04f 0c07 	mov.w	ip, #7
  400c72:	e7e4      	b.n	400c3e <_usb_d_dev_ep_init+0xb6>
  400c74:	f04f 0c06 	mov.w	ip, #6
  400c78:	e7e1      	b.n	400c3e <_usb_d_dev_ep_init+0xb6>
  400c7a:	f04f 0c05 	mov.w	ip, #5
  400c7e:	e7de      	b.n	400c3e <_usb_d_dev_ep_init+0xb6>
  400c80:	f04f 0c04 	mov.w	ip, #4
  400c84:	e7db      	b.n	400c3e <_usb_d_dev_ep_init+0xb6>
  400c86:	f04f 0c03 	mov.w	ip, #3
  400c8a:	e7d8      	b.n	400c3e <_usb_d_dev_ep_init+0xb6>
  400c8c:	f04f 0c02 	mov.w	ip, #2
  400c90:	e7d5      	b.n	400c3e <_usb_d_dev_ep_init+0xb6>
		return -USB_ERR_PARAM;
  400c92:	f06f 0011 	mvn.w	r0, #17
  400c96:	e7e6      	b.n	400c66 <_usb_d_dev_ep_init+0xde>
		return -USB_ERR_REDO;
  400c98:	f06f 0013 	mvn.w	r0, #19
  400c9c:	e7e3      	b.n	400c66 <_usb_d_dev_ep_init+0xde>
  400c9e:	bf00      	nop
  400ca0:	00402128 	.word	0x00402128
  400ca4:	20400180 	.word	0x20400180
  400ca8:	00401219 	.word	0x00401219

00400cac <_usb_d_dev_ep_deinit>:
	if (epn > CONF_USB_D_MAX_EP_N || !_usb_d_dev_ep_is_used(ept)) {
  400cac:	f010 0f0c 	tst.w	r0, #12
{
  400cb0:	b570      	push	{r4, r5, r6, lr}
	if (epn > CONF_USB_D_MAX_EP_N || !_usb_d_dev_ep_is_used(ept)) {
  400cb2:	d119      	bne.n	400ce8 <_usb_d_dev_ep_deinit+0x3c>
	uint8_t               epn = USB_EP_GET_N(ep);
  400cb4:	f000 040f 	and.w	r4, r0, #15
	if (epn > CONF_USB_D_MAX_EP_N || !_usb_d_dev_ep_is_used(ept)) {
  400cb8:	4e0c      	ldr	r6, [pc, #48]	; (400cec <_usb_d_dev_ep_deinit+0x40>)
  400cba:	2314      	movs	r3, #20
  400cbc:	fb03 6504 	mla	r5, r3, r4, r6
  400cc0:	f895 2026 	ldrb.w	r2, [r5, #38]	; 0x26
  400cc4:	2aff      	cmp	r2, #255	; 0xff
  400cc6:	d00f      	beq.n	400ce8 <_usb_d_dev_ep_deinit+0x3c>
	struct _usb_d_dev_ep *ept = &dev_inst.ep[epn];
  400cc8:	fb04 3303 	mla	r3, r4, r3, r3
	_usb_d_dev_trans_stop(ept, dir, USB_TRANS_RESET);
  400ccc:	09c1      	lsrs	r1, r0, #7
  400cce:	2203      	movs	r2, #3
  400cd0:	18f0      	adds	r0, r6, r3
  400cd2:	4b07      	ldr	r3, [pc, #28]	; (400cf0 <_usb_d_dev_ep_deinit+0x44>)
  400cd4:	4798      	blx	r3
	((Usbhs *)hw)->USBHS_DEVEPT &= ~mask;
  400cd6:	4907      	ldr	r1, [pc, #28]	; (400cf4 <_usb_d_dev_ep_deinit+0x48>)
	hri_usbhs_clear_DEVEPT_reg(hw, USBHS_DEVEPT_EPEN0 << epn);
  400cd8:	2201      	movs	r2, #1
  400cda:	69cb      	ldr	r3, [r1, #28]
  400cdc:	40a2      	lsls	r2, r4
  400cde:	ea23 0302 	bic.w	r3, r3, r2
  400ce2:	61cb      	str	r3, [r1, #28]
	ept->ep       = 0xFF;
  400ce4:	23ff      	movs	r3, #255	; 0xff
  400ce6:	84eb      	strh	r3, [r5, #38]	; 0x26
}
  400ce8:	bd70      	pop	{r4, r5, r6, pc}
  400cea:	bf00      	nop
  400cec:	20400180 	.word	0x20400180
  400cf0:	00400701 	.word	0x00400701
  400cf4:	40038000 	.word	0x40038000

00400cf8 <_usb_d_dev_ep_enable>:
	if (epn > CONF_USB_D_MAX_EP_N || !_usb_d_dev_ep_is_used(ept)) {
  400cf8:	f010 0f0c 	tst.w	r0, #12
	uint8_t               epn          = USB_EP_GET_N(ep);
  400cfc:	f000 030f 	and.w	r3, r0, #15
{
  400d00:	e92d 41f0 	stmdb	sp!, {r4, r5, r6, r7, r8, lr}
	if (epn > CONF_USB_D_MAX_EP_N || !_usb_d_dev_ep_is_used(ept)) {
  400d04:	f040 80ae 	bne.w	400e64 <_usb_d_dev_ep_enable+0x16c>
  400d08:	4958      	ldr	r1, [pc, #352]	; (400e6c <_usb_d_dev_ep_enable+0x174>)
  400d0a:	2214      	movs	r2, #20
  400d0c:	fb02 1203 	mla	r2, r2, r3, r1
  400d10:	f892 2026 	ldrb.w	r2, [r2, #38]	; 0x26
  400d14:	2aff      	cmp	r2, #255	; 0xff
  400d16:	f000 80a5 	beq.w	400e64 <_usb_d_dev_ep_enable+0x16c>
	if (epn == 0) {
  400d1a:	2b00      	cmp	r3, #0
  400d1c:	d03c      	beq.n	400d98 <_usb_d_dev_ep_enable+0xa0>
	uint16_t              ep_allocated = 1 << epn;
  400d1e:	2201      	movs	r2, #1
  400d20:	2403      	movs	r4, #3
	return ((Usbhs *)hw)->USBHS_DEVEPT;
  400d22:	4f53      	ldr	r7, [pc, #332]	; (400e70 <_usb_d_dev_ep_enable+0x178>)
  400d24:	fa02 f503 	lsl.w	r5, r2, r3
	return (data & (0x1 << epn));
  400d28:	4694      	mov	ip, r2
	uint16_t              ep_allocated = 1 << epn;
  400d2a:	b2ad      	uxth	r5, r5
		for (i = CONF_USB_D_MAX_EP_N; i > epn; i--) {
  400d2c:	b2e2      	uxtb	r2, r4
  400d2e:	429a      	cmp	r2, r3
  400d30:	d875      	bhi.n	400e1e <_usb_d_dev_ep_enable+0x126>
  400d32:	461c      	mov	r4, r3
				ptr_ep->flags.bits.is_busy      = false;
  400d34:	f04f 0c14 	mov.w	ip, #20
  400d38:	4f4d      	ldr	r7, [pc, #308]	; (400e70 <_usb_d_dev_ep_enable+0x178>)
		data |= 0x1 << epn;
  400d3a:	f04f 0e01 	mov.w	lr, #1
		for (i = epn; i <= CONF_USB_D_MAX_EP_N; i++) {
  400d3e:	b2e2      	uxtb	r2, r4
  400d40:	2a03      	cmp	r2, #3
  400d42:	d838      	bhi.n	400db6 <_usb_d_dev_ep_enable+0xbe>
			if (ep_allocated & (1 << i)) {
  400d44:	fa45 f204 	asr.w	r2, r5, r4
  400d48:	07d2      	lsls	r2, r2, #31
  400d4a:	d523      	bpl.n	400d94 <_usb_d_dev_ep_enable+0x9c>
				ptr_ep->flags.bits.is_busy      = false;
  400d4c:	fb0c 1204 	mla	r2, ip, r4, r1
  400d50:	f892 6027 	ldrb.w	r6, [r2, #39]	; 0x27
  400d54:	f36f 1686 	bfc	r6, #6, #1
  400d58:	f882 6027 	strb.w	r6, [r2, #39]	; 0x27
	((Usbhs *)hw)->USBHS_DEVEPTCFG[index] |= USBHS_DEVEPTCFG_ALLOC;
  400d5c:	00a2      	lsls	r2, r4, #2
  400d5e:	f102 4280 	add.w	r2, r2, #1073741824	; 0x40000000
  400d62:	f502 3260 	add.w	r2, r2, #229376	; 0x38000
  400d66:	f8d2 6100 	ldr.w	r6, [r2, #256]	; 0x100
  400d6a:	f046 0602 	orr.w	r6, r6, #2
  400d6e:	f8c2 6100 	str.w	r6, [r2, #256]	; 0x100
		data |= 0x1 << epn;
  400d72:	fa0e f604 	lsl.w	r6, lr, r4
	return ((Usbhs *)hw)->USBHS_DEVEPT;
  400d76:	f8d7 801c 	ldr.w	r8, [r7, #28]
  400d7a:	ea46 0608 	orr.w	r6, r6, r8
	((Usbhs *)hw)->USBHS_DEVEPT = data;
  400d7e:	61fe      	str	r6, [r7, #28]
	return (((Usbhs *)hw)->USBHS_DEVEPTISR[index] & USBHS_DEVEPTISR_CFGOK) >> USBHS_DEVEPTISR_CFGOK_Pos;
  400d80:	f8d2 6130 	ldr.w	r6, [r2, #304]	; 0x130
				if (!_usbd_ep_is_cfg(i)) {
  400d84:	0376      	lsls	r6, r6, #13
  400d86:	d546      	bpl.n	400e16 <_usb_d_dev_ep_enable+0x11e>
	((Usbhs *)hw)->USBHS_DEVEPTCFG[index] &= ~USBHS_DEVEPTCFG_AUTOSW;
  400d88:	f8d2 6100 	ldr.w	r6, [r2, #256]	; 0x100
  400d8c:	f426 7600 	bic.w	r6, r6, #512	; 0x200
  400d90:	f8c2 6100 	str.w	r6, [r2, #256]	; 0x100
		for (i = epn; i <= CONF_USB_D_MAX_EP_N; i++) {
  400d94:	3401      	adds	r4, #1
  400d96:	e7d2      	b.n	400d3e <_usb_d_dev_ep_enable+0x46>
	((Usbhs *)hw)->USBHS_DEVEPTCFG[index] |= USBHS_DEVEPTCFG_ALLOC;
  400d98:	4a35      	ldr	r2, [pc, #212]	; (400e70 <_usb_d_dev_ep_enable+0x178>)
  400d9a:	f8d2 4100 	ldr.w	r4, [r2, #256]	; 0x100
  400d9e:	f044 0402 	orr.w	r4, r4, #2
  400da2:	f8c2 4100 	str.w	r4, [r2, #256]	; 0x100
	return ((Usbhs *)hw)->USBHS_DEVEPT;
  400da6:	69d4      	ldr	r4, [r2, #28]
		data |= 0x1 << epn;
  400da8:	f044 0401 	orr.w	r4, r4, #1
	((Usbhs *)hw)->USBHS_DEVEPT = data;
  400dac:	61d4      	str	r4, [r2, #28]
	return (((Usbhs *)hw)->USBHS_DEVEPTISR[index] & USBHS_DEVEPTISR_CFGOK) >> USBHS_DEVEPTISR_CFGOK_Pos;
  400dae:	f8d2 2130 	ldr.w	r2, [r2, #304]	; 0x130
		if (!_usbd_ep_is_cfg(0)) {
  400db2:	0354      	lsls	r4, r2, #13
  400db4:	d52f      	bpl.n	400e16 <_usb_d_dev_ep_enable+0x11e>
	if (ept->flags.bits.eptype == USB_D_EPTYPE_CTRL) {
  400db6:	2514      	movs	r5, #20
  400db8:	fb05 1203 	mla	r2, r5, r3, r1
  400dbc:	f892 4027 	ldrb.w	r4, [r2, #39]	; 0x27
  400dc0:	f004 0407 	and.w	r4, r4, #7
  400dc4:	2c01      	cmp	r4, #1
  400dc6:	d142      	bne.n	400e4e <_usb_d_dev_ep_enable+0x156>
	((Usbhs *)hw)->USBHS_DEVEPTICR[index] = data;
  400dc8:	009a      	lsls	r2, r3, #2
		_usb_d_dev_trans_setup(ept);
  400dca:	fb03 5505 	mla	r5, r3, r5, r5
  400dce:	2002      	movs	r0, #2
  400dd0:	f102 4280 	add.w	r2, r2, #1073741824	; 0x40000000
  400dd4:	4429      	add	r1, r5
  400dd6:	f502 3260 	add.w	r2, r2, #229376	; 0x38000
  400dda:	f8c2 0160 	str.w	r0, [r2, #352]	; 0x160
	((Usbhs *)hw)->USBHS_DEVEPTIFR[index] = data;
  400dde:	f8c2 4190 	str.w	r4, [r2, #400]	; 0x190
	uint8_t epn = USB_EP_GET_N(ept->ep);
  400de2:	7c8b      	ldrb	r3, [r1, #18]
	((Usbhs *)hw)->USBHS_DEVEPTICR[index] = data;
  400de4:	2141      	movs	r1, #65	; 0x41
  400de6:	f003 020f 	and.w	r2, r3, #15
  400dea:	4613      	mov	r3, r2
  400dec:	4083      	lsls	r3, r0
  400dee:	f103 4380 	add.w	r3, r3, #1073741824	; 0x40000000
  400df2:	f503 3360 	add.w	r3, r3, #229376	; 0x38000
  400df6:	f8c3 1160 	str.w	r1, [r3, #352]	; 0x160
	((Usbhs *)hw)->USBHS_DEVEPTIER[index] = data;
  400dfa:	2106      	movs	r1, #6
	((Usbhs *)hw)->USBHS_DEVEPTICR[index] = data;
  400dfc:	f8c3 0160 	str.w	r0, [r3, #352]	; 0x160
	((Usbhs *)hw)->USBHS_DEVEPTIER[index] = data;
  400e00:	f8c3 11f0 	str.w	r1, [r3, #496]	; 0x1f0
	((Usbhs *)hw)->USBHS_DEVEPTIDR[index] = data;
  400e04:	f8c3 4220 	str.w	r4, [r3, #544]	; 0x220
	hri_usbhs_set_DEVIMR_reg(hw, (USBHS_DEVIER_PEP_0 << epn));
  400e08:	f44f 5380 	mov.w	r3, #4096	; 0x1000
  400e0c:	4093      	lsls	r3, r2
	((Usbhs *)hw)->USBHS_DEVIER = mask;
  400e0e:	4a18      	ldr	r2, [pc, #96]	; (400e70 <_usb_d_dev_ep_enable+0x178>)
  400e10:	6193      	str	r3, [r2, #24]
	return USB_OK;
  400e12:	2000      	movs	r0, #0
}
  400e14:	e001      	b.n	400e1a <_usb_d_dev_ep_enable+0x122>
			return -USB_ERR_ALLOC_FAIL;
  400e16:	f06f 0014 	mvn.w	r0, #20
}
  400e1a:	e8bd 81f0 	ldmia.w	sp!, {r4, r5, r6, r7, r8, pc}
	return ((Usbhs *)hw)->USBHS_DEVEPT;
  400e1e:	69fa      	ldr	r2, [r7, #28]
	return (data & (0x1 << epn));
  400e20:	fa0c f604 	lsl.w	r6, ip, r4
			if (_usbd_ep_is_enabled(i)) {
  400e24:	4216      	tst	r6, r2
  400e26:	d010      	beq.n	400e4a <_usb_d_dev_ep_enable+0x152>
  400e28:	69fa      	ldr	r2, [r7, #28]
				ep_allocated |= 1 << i;
  400e2a:	4335      	orrs	r5, r6
		data &= ~((uint32_t)0x1 << epn);
  400e2c:	ea22 0206 	bic.w	r2, r2, r6
				ep_allocated |= 1 << i;
  400e30:	b2ad      	uxth	r5, r5
	((Usbhs *)hw)->USBHS_DEVEPT = data;
  400e32:	61fa      	str	r2, [r7, #28]
	((Usbhs *)hw)->USBHS_DEVEPTCFG[index] &= ~USBHS_DEVEPTCFG_ALLOC;
  400e34:	00a2      	lsls	r2, r4, #2
  400e36:	f102 4280 	add.w	r2, r2, #1073741824	; 0x40000000
  400e3a:	f502 3260 	add.w	r2, r2, #229376	; 0x38000
  400e3e:	f8d2 6100 	ldr.w	r6, [r2, #256]	; 0x100
  400e42:	f026 0602 	bic.w	r6, r6, #2
  400e46:	f8c2 6100 	str.w	r6, [r2, #256]	; 0x100
		for (i = CONF_USB_D_MAX_EP_N; i > epn; i--) {
  400e4a:	3c01      	subs	r4, #1
  400e4c:	e76e      	b.n	400d2c <_usb_d_dev_ep_enable+0x34>
	} else if (dir) {
  400e4e:	f010 0f80 	tst.w	r0, #128	; 0x80
  400e52:	4a07      	ldr	r2, [pc, #28]	; (400e70 <_usb_d_dev_ep_enable+0x178>)
	((Usbhs *)hw)->USBHS_DEVEPTIFR[index] = data;
  400e54:	bf19      	ittee	ne
  400e56:	3364      	addne	r3, #100	; 0x64
  400e58:	2101      	movne	r1, #1
	((Usbhs *)hw)->USBHS_DEVEPTICR[index] = data;
  400e5a:	3358      	addeq	r3, #88	; 0x58
  400e5c:	2102      	moveq	r1, #2
  400e5e:	f842 1023 	str.w	r1, [r2, r3, lsl #2]
  400e62:	e7d6      	b.n	400e12 <_usb_d_dev_ep_enable+0x11a>
		return -USB_ERR_PARAM;
  400e64:	f06f 0011 	mvn.w	r0, #17
  400e68:	e7d7      	b.n	400e1a <_usb_d_dev_ep_enable+0x122>
  400e6a:	bf00      	nop
  400e6c:	20400180 	.word	0x20400180
  400e70:	40038000 	.word	0x40038000

00400e74 <_usb_d_dev_ep_stall>:
	if (epn > CONF_USB_D_MAX_EP_N) {
  400e74:	f010 0f0c 	tst.w	r0, #12
{
  400e78:	b570      	push	{r4, r5, r6, lr}
	struct _usb_d_dev_ep *ept = &dev_inst.ep[epn];
  400e7a:	f000 040f 	and.w	r4, r0, #15
	if (epn > CONF_USB_D_MAX_EP_N) {
  400e7e:	d178      	bne.n	400f72 <_usb_d_dev_ep_stall+0xfe>
	if (USB_EP_STALL_SET == ctrl) {
  400e80:	4d3f      	ldr	r5, [pc, #252]	; (400f80 <_usb_d_dev_ep_stall+0x10c>)
  400e82:	2214      	movs	r2, #20
  400e84:	2901      	cmp	r1, #1
	uint8_t epn = USB_EP_GET_N(ept->ep);
  400e86:	fb02 5204 	mla	r2, r2, r4, r5
	if (USB_EP_STALL_SET == ctrl) {
  400e8a:	d125      	bne.n	400ed8 <_usb_d_dev_ep_stall+0x64>
	uint8_t epn = USB_EP_GET_N(ept->ep);
  400e8c:	f892 3026 	ldrb.w	r3, [r2, #38]	; 0x26
	if (epn > CONF_USB_D_MAX_EP_N) {
  400e90:	f013 0f0c 	tst.w	r3, #12
  400e94:	d170      	bne.n	400f78 <_usb_d_dev_ep_stall+0x104>
	if (!ept->flags.bits.is_stalled) {
  400e96:	f892 0027 	ldrb.w	r0, [r2, #39]	; 0x27
  400e9a:	f010 0008 	ands.w	r0, r0, #8
  400e9e:	d001      	beq.n	400ea4 <_usb_d_dev_ep_stall+0x30>
		rc = _usb_d_dev_ep_stall_clr(ept);
  400ea0:	2000      	movs	r0, #0
  400ea2:	e018      	b.n	400ed6 <_usb_d_dev_ep_stall+0x62>
		ept->flags.bits.is_stalled = 1;
  400ea4:	f892 1027 	ldrb.w	r1, [r2, #39]	; 0x27
  400ea8:	f041 0108 	orr.w	r1, r1, #8
  400eac:	f882 1027 	strb.w	r1, [r2, #39]	; 0x27
	uint8_t epn = USB_EP_GET_N(ept->ep);
  400eb0:	f003 010f 	and.w	r1, r3, #15
	((Usbhs *)hw)->USBHS_DEVEPTIER[index] = data;
  400eb4:	2240      	movs	r2, #64	; 0x40
  400eb6:	008b      	lsls	r3, r1, #2
  400eb8:	f103 4380 	add.w	r3, r3, #1073741824	; 0x40000000
  400ebc:	f503 3360 	add.w	r3, r3, #229376	; 0x38000
  400ec0:	f8c3 21f0 	str.w	r2, [r3, #496]	; 0x1f0
	hri_usbhs_set_DEVIMR_reg(USBHS, USBHS_DEVIMR_PEP_0 << epn);
  400ec4:	f44f 5280 	mov.w	r2, #4096	; 0x1000
  400ec8:	408a      	lsls	r2, r1
	((Usbhs *)hw)->USBHS_DEVIER = mask;
  400eca:	492e      	ldr	r1, [pc, #184]	; (400f84 <_usb_d_dev_ep_stall+0x110>)
  400ecc:	618a      	str	r2, [r1, #24]
	((Usbhs *)hw)->USBHS_DEVEPTIER[index] = data;
  400ece:	f44f 2200 	mov.w	r2, #524288	; 0x80000
  400ed2:	f8c3 21f0 	str.w	r2, [r3, #496]	; 0x1f0
}
  400ed6:	bd70      	pop	{r4, r5, r6, pc}
	} else if (USB_EP_STALL_CLR == ctrl) {
  400ed8:	2900      	cmp	r1, #0
  400eda:	d145      	bne.n	400f68 <_usb_d_dev_ep_stall+0xf4>
	if (!ept->flags.bits.is_stalled) {
  400edc:	f892 1027 	ldrb.w	r1, [r2, #39]	; 0x27
  400ee0:	070e      	lsls	r6, r1, #28
  400ee2:	d5dd      	bpl.n	400ea0 <_usb_d_dev_ep_stall+0x2c>
	uint8_t epn = USB_EP_GET_N(ept->ep);
  400ee4:	f892 3026 	ldrb.w	r3, [r2, #38]	; 0x26
	((Usbhs *)hw)->USBHS_DEVEPTIDR[index] = data;
  400ee8:	f44f 2200 	mov.w	r2, #524288	; 0x80000
  400eec:	f003 060f 	and.w	r6, r3, #15
  400ef0:	00b3      	lsls	r3, r6, #2
  400ef2:	f103 4380 	add.w	r3, r3, #1073741824	; 0x40000000
  400ef6:	f503 3360 	add.w	r3, r3, #229376	; 0x38000
  400efa:	f8c3 2220 	str.w	r2, [r3, #544]	; 0x220
  400efe:	2240      	movs	r2, #64	; 0x40
  400f00:	f8c3 2220 	str.w	r2, [r3, #544]	; 0x220
	return (((Usbhs *)hw)->USBHS_DEVEPTISR[index] & USBHS_DEVEPTISR_CTRL_STALLEDI) >> USBHS_DEVEPTISR_CTRL_STALLEDI_Pos;
  400f04:	f8d3 0130 	ldr.w	r0, [r3, #304]	; 0x130
	if (_usbd_ep_is_stall_sent(epn)) {
  400f08:	0640      	lsls	r0, r0, #25
  400f0a:	d510      	bpl.n	400f2e <_usb_d_dev_ep_stall+0xba>
	((Usbhs *)hw)->USBHS_DEVEPTICR[index] = data;
  400f0c:	f8c3 2160 	str.w	r2, [r3, #352]	; 0x160
	hri_usbhs_set_DEVEPT_reg(hw, USBHS_DEVEPT_EPRST0 << epn);
  400f10:	f44f 3080 	mov.w	r0, #65536	; 0x10000
	((Usbhs *)hw)->USBHS_DEVEPT |= mask;
  400f14:	4a1b      	ldr	r2, [pc, #108]	; (400f84 <_usb_d_dev_ep_stall+0x110>)
  400f16:	40b0      	lsls	r0, r6
  400f18:	69d6      	ldr	r6, [r2, #28]
  400f1a:	4306      	orrs	r6, r0
  400f1c:	61d6      	str	r6, [r2, #28]
	((Usbhs *)hw)->USBHS_DEVEPT &= ~mask;
  400f1e:	69d6      	ldr	r6, [r2, #28]
  400f20:	ea26 0000 	bic.w	r0, r6, r0
  400f24:	61d0      	str	r0, [r2, #28]
	((Usbhs *)hw)->USBHS_DEVEPTIER[index] = data;
  400f26:	f44f 2280 	mov.w	r2, #262144	; 0x40000
  400f2a:	f8c3 21f0 	str.w	r2, [r3, #496]	; 0x1f0
	if (_usb_d_dev_ep_is_ctrl(ept)) {
  400f2e:	f001 0107 	and.w	r1, r1, #7
  400f32:	2901      	cmp	r1, #1
  400f34:	d10e      	bne.n	400f54 <_usb_d_dev_ep_stall+0xe0>
	return ((Usbhs *)hw)->USBHS_DEVEPTISR[index];
  400f36:	f8d3 0130 	ldr.w	r0, [r3, #304]	; 0x130
		if ((hri_usbhs_read_DEVEPTISR_reg(USBHS, epn) & USBHS_DEVEPTISR_STALLEDI) == 0) {
  400f3a:	f010 0040 	ands.w	r0, r0, #64	; 0x40
  400f3e:	d1af      	bne.n	400ea0 <_usb_d_dev_ep_stall+0x2c>
			ept->flags.bits.is_stalled = 0;
  400f40:	2214      	movs	r2, #20
  400f42:	fb02 5204 	mla	r2, r2, r4, r5
  400f46:	f892 3027 	ldrb.w	r3, [r2, #39]	; 0x27
  400f4a:	f360 03c3 	bfi	r3, r0, #3, #1
  400f4e:	f882 3027 	strb.w	r3, [r2, #39]	; 0x27
  400f52:	e7c0      	b.n	400ed6 <_usb_d_dev_ep_stall+0x62>
		ept->flags.bits.is_stalled = 0;
  400f54:	2214      	movs	r2, #20
  400f56:	fb02 5204 	mla	r2, r2, r4, r5
  400f5a:	f892 3027 	ldrb.w	r3, [r2, #39]	; 0x27
  400f5e:	f36f 03c3 	bfc	r3, #3, #1
  400f62:	f882 3027 	strb.w	r3, [r2, #39]	; 0x27
  400f66:	e79b      	b.n	400ea0 <_usb_d_dev_ep_stall+0x2c>
	return ept->flags.bits.is_stalled;
  400f68:	f892 0027 	ldrb.w	r0, [r2, #39]	; 0x27
  400f6c:	f3c0 00c0 	ubfx	r0, r0, #3, #1
  400f70:	e7b1      	b.n	400ed6 <_usb_d_dev_ep_stall+0x62>
		return -USB_ERR_PARAM;
  400f72:	f06f 0011 	mvn.w	r0, #17
  400f76:	e7ae      	b.n	400ed6 <_usb_d_dev_ep_stall+0x62>
		return ERR_NOT_FOUND;
  400f78:	f06f 0009 	mvn.w	r0, #9
  400f7c:	e7ab      	b.n	400ed6 <_usb_d_dev_ep_stall+0x62>
  400f7e:	bf00      	nop
  400f80:	20400180 	.word	0x20400180
  400f84:	40038000 	.word	0x40038000

00400f88 <_usb_d_dev_ep_read_req>:

int32_t _usb_d_dev_ep_read_req(const uint8_t ep, uint8_t *req_buf)
{
	uint8_t epn = USB_EP_GET_N(ep);
  400f88:	f000 020f 	and.w	r2, r0, #15

	uint16_t bytes = _usbd_ep_get_trans_count(epn);

	if (epn > CONF_USB_D_MAX_EP_N || !req_buf) {
  400f8c:	f010 0f0c 	tst.w	r0, #12
  400f90:	ea4f 0382 	mov.w	r3, r2, lsl #2
  400f94:	f103 4380 	add.w	r3, r3, #1073741824	; 0x40000000
  400f98:	f503 3360 	add.w	r3, r3, #229376	; 0x38000
{
  400f9c:	b530      	push	{r4, r5, lr}
  400f9e:	460c      	mov	r4, r1
	tmp = ((Usbhs *)hw)->USBHS_DEVEPTISR[index];
  400fa0:	f8d3 5130 	ldr.w	r5, [r3, #304]	; 0x130
	if (epn > CONF_USB_D_MAX_EP_N || !req_buf) {
  400fa4:	d119      	bne.n	400fda <_usb_d_dev_ep_read_req+0x52>
  400fa6:	b1c1      	cbz	r1, 400fda <_usb_d_dev_ep_read_req+0x52>
	tmp = ((Usbhs *)hw)->USBHS_DEVEPTCFG[index];
  400fa8:	f8d3 1100 	ldr.w	r1, [r3, #256]	; 0x100
		return -USB_ERR_PARAM;
	}

	if (!_usbd_ep_is_ctrl(epn)) {
  400fac:	f411 5fc0 	tst.w	r1, #6144	; 0x1800
  400fb0:	d116      	bne.n	400fe0 <_usb_d_dev_ep_read_req+0x58>
	return (((Usbhs *)hw)->USBHS_DEVEPTISR[index] & USBHS_DEVEPTISR_CTRL_RXSTPI) >> USBHS_DEVEPTISR_CTRL_RXSTPI_Pos;
  400fb2:	f8d3 1130 	ldr.w	r1, [r3, #304]	; 0x130
		return -USB_ERR_FUNC;
	}

	if (!_usbd_ep_is_setup(epn)) {
  400fb6:	f3c1 0080 	ubfx	r0, r1, #2, #1
  400fba:	0749      	lsls	r1, r1, #29
  400fbc:	d50c      	bpl.n	400fd8 <_usb_d_dev_ep_read_req+0x50>
		return ERR_NONE;
	}

	uint8_t *ptr = (uint8_t *)&_usbd_ep_get_fifo_access(epn, 8);
  400fbe:	03d2      	lsls	r2, r2, #15
	memcpy(req_buf, (void *)ptr, 8);
  400fc0:	f102 4220 	add.w	r2, r2, #2684354560	; 0xa0000000
  400fc4:	f502 1280 	add.w	r2, r2, #1048576	; 0x100000
  400fc8:	ca03      	ldmia	r2!, {r0, r1}
	((Usbhs *)hw)->USBHS_DEVEPTICR[index] = data;
  400fca:	2204      	movs	r2, #4
  400fcc:	6020      	str	r0, [r4, #0]
	return (hri_usbhs_get_DEVEPTISR_reg(USBHS, epn, USBHS_DEVEPTISR_BYCT_Msk) >> USBHS_DEVEPTISR_BYCT_Pos);
  400fce:	f3c5 500a 	ubfx	r0, r5, #20, #11
	memcpy(req_buf, (void *)ptr, 8);
  400fd2:	6061      	str	r1, [r4, #4]
  400fd4:	f8c3 2160 	str.w	r2, [r3, #352]	; 0x160

	_usbd_ep_ack_setup(epn);

	return bytes;
}
  400fd8:	bd30      	pop	{r4, r5, pc}
		return -USB_ERR_PARAM;
  400fda:	f06f 0011 	mvn.w	r0, #17
  400fde:	e7fb      	b.n	400fd8 <_usb_d_dev_ep_read_req+0x50>
		return -USB_ERR_FUNC;
  400fe0:	f06f 0012 	mvn.w	r0, #18
  400fe4:	e7f8      	b.n	400fd8 <_usb_d_dev_ep_read_req+0x50>
	...

00400fe8 <_usb_d_dev_ep_trans>:

int32_t _usb_d_dev_ep_trans(const struct usb_d_transfer *trans)
{
  400fe8:	e92d 4ff0 	stmdb	sp!, {r4, r5, r6, r7, r8, r9, sl, fp, lr}
	Usbhs *               hw  = USBHS;
	uint8_t               epn = USB_EP_GET_N(trans->ep);
  400fec:	7a06      	ldrb	r6, [r0, #8]
	bool                  dir = USB_EP_GET_DIR(trans->ep);
	struct _usb_d_dev_ep *ept = &dev_inst.ep[epn];

	uint16_t size_mask      = (ept->size == 1023) ? 1023 : (ept->size - 1);
  400fee:	2414      	movs	r4, #20
  400ff0:	4f48      	ldr	r7, [pc, #288]	; (401114 <_usb_d_dev_ep_trans+0x12c>)
{
  400ff2:	b085      	sub	sp, #20
	uint8_t               epn = USB_EP_GET_N(trans->ep);
  400ff4:	f006 050f 	and.w	r5, r6, #15
{
  400ff8:	4682      	mov	sl, r0
	uint16_t size_mask      = (ept->size == 1023) ? 1023 : (ept->size - 1);
  400ffa:	fb04 7205 	mla	r2, r4, r5, r7
	bool     size_n_aligned = (trans->size & size_mask);
	bool     is_ctrl        = _usb_d_dev_ep_is_ctrl(ept);
  400ffe:	fb04 7405 	mla	r4, r4, r5, r7
	uint16_t size_mask      = (ept->size == 1023) ? 1023 : (ept->size - 1);
  401002:	f8b2 b024 	ldrh.w	fp, [r2, #36]	; 0x24
  401006:	f240 32ff 	movw	r2, #1023	; 0x3ff
	bool     is_ctrl        = _usb_d_dev_ep_is_ctrl(ept);
  40100a:	f894 8027 	ldrb.w	r8, [r4, #39]	; 0x27
	uint16_t size_mask      = (ept->size == 1023) ? 1023 : (ept->size - 1);
  40100e:	4593      	cmp	fp, r2
  401010:	bf1c      	itt	ne
  401012:	f10b 3bff 	addne.w	fp, fp, #4294967295	; 0xffffffff
  401016:	fa1f fb8b 	uxthne.w	fp, fp

	volatile hal_atomic_t flags;

	if (epn > CONF_USB_D_MAX_EP_N) {
  40101a:	f016 0f0c 	tst.w	r6, #12
  40101e:	d173      	bne.n	401108 <_usb_d_dev_ep_trans+0x120>
		return -USB_ERR_PARAM;
	}

	/* Check halt */
	if (ept->flags.bits.is_stalled) {
  401020:	f018 0f08 	tst.w	r8, #8
  401024:	d173      	bne.n	40110e <_usb_d_dev_ep_trans+0x126>
	bool     size_n_aligned = (trans->size & size_mask);
  401026:	6843      	ldr	r3, [r0, #4]
		return USB_HALTED;
	}

	/* Try to start transactions. */
	atomic_enter_critical(&flags);
  401028:	a803      	add	r0, sp, #12
  40102a:	4a3b      	ldr	r2, [pc, #236]	; (401118 <_usb_d_dev_ep_trans+0x130>)
	bool     size_n_aligned = (trans->size & size_mask);
  40102c:	9300      	str	r3, [sp, #0]
	atomic_enter_critical(&flags);
  40102e:	4790      	blx	r2

	if (_usb_d_dev_ep_is_busy(ept)) {
  401030:	f894 9027 	ldrb.w	r9, [r4, #39]	; 0x27
  401034:	4a39      	ldr	r2, [pc, #228]	; (40111c <_usb_d_dev_ep_trans+0x134>)
  401036:	f019 0940 	ands.w	r9, r9, #64	; 0x40
  40103a:	d005      	beq.n	401048 <_usb_d_dev_ep_trans+0x60>
		atomic_leave_critical(&flags);
  40103c:	a803      	add	r0, sp, #12
  40103e:	4790      	blx	r2
		return USB_BUSY;
  401040:	2001      	movs	r0, #1
#if (CONF_USB_D_DMA_ENABLE == 1)
	}
#endif

	return ERR_NONE;
}
  401042:	b005      	add	sp, #20
  401044:	e8bd 8ff0 	ldmia.w	sp!, {r4, r5, r6, r7, r8, r9, sl, fp, pc}
	ept->flags.bits.is_busy = 1;
  401048:	f894 0027 	ldrb.w	r0, [r4, #39]	; 0x27
  40104c:	f104 0120 	add.w	r1, r4, #32
  401050:	b276      	sxtb	r6, r6
  401052:	f040 0040 	orr.w	r0, r0, #64	; 0x40
  401056:	9101      	str	r1, [sp, #4]
  401058:	f884 0027 	strb.w	r0, [r4, #39]	; 0x27
	atomic_leave_critical(&flags);
  40105c:	a803      	add	r0, sp, #12
  40105e:	4790      	blx	r2
	ept->trans_buf   = trans->buf;
  401060:	f8da 2000 	ldr.w	r2, [sl]
	ept->flags.bits.dir      = dir;
  401064:	9901      	ldr	r1, [sp, #4]
	bool                  dir = USB_EP_GET_DIR(trans->ep);
  401066:	0ff0      	lsrs	r0, r6, #31
	ept->trans_buf   = trans->buf;
  401068:	6162      	str	r2, [r4, #20]
	ept->trans_size  = trans->size;
  40106a:	f8da 2004 	ldr.w	r2, [sl, #4]
	ept->trans_load  = 0;
  40106e:	f8c4 9020 	str.w	r9, [r4, #32]
	ept->trans_count = 0;
  401072:	e9c4 2906 	strd	r2, r9, [r4, #24]
	ept->flags.bits.dir      = dir;
  401076:	79ca      	ldrb	r2, [r1, #7]
  401078:	f360 12c7 	bfi	r2, r0, #7, #1
  40107c:	71ca      	strb	r2, [r1, #7]
	ept->flags.bits.need_zlp = (trans->zlp && (!size_n_aligned));
  40107e:	f89a 3009 	ldrb.w	r3, [sl, #9]
  401082:	b12b      	cbz	r3, 401090 <_usb_d_dev_ep_trans+0xa8>
  401084:	9b00      	ldr	r3, [sp, #0]
  401086:	ea1b 0f03 	tst.w	fp, r3
  40108a:	bf0c      	ite	eq
  40108c:	2301      	moveq	r3, #1
  40108e:	2300      	movne	r3, #0
  401090:	2014      	movs	r0, #20
  401092:	fb00 7205 	mla	r2, r0, r5, r7
  401096:	f892 1027 	ldrb.w	r1, [r2, #39]	; 0x27
  40109a:	f363 1104 	bfi	r1, r3, #4, #1
	if (_usb_d_dev_ep_is_dma(epn)) {
  40109e:	1e6b      	subs	r3, r5, #1
  4010a0:	2b05      	cmp	r3, #5
	ept->flags.bits.need_zlp = (trans->zlp && (!size_n_aligned));
  4010a2:	f882 1027 	strb.w	r1, [r2, #39]	; 0x27
	if (_usb_d_dev_ep_is_dma(epn)) {
  4010a6:	b22b      	sxth	r3, r5
  4010a8:	d811      	bhi.n	4010ce <_usb_d_dev_ep_trans+0xe6>
	((Usbhs *)hw)->USBHS_DEVEPTCFG[index] |= USBHS_DEVEPTCFG_AUTOSW;
  4010aa:	009b      	lsls	r3, r3, #2
	struct _usb_d_dev_ep *ept = &dev_inst.ep[epn];
  4010ac:	fb05 0000 	mla	r0, r5, r0, r0
  4010b0:	f103 4380 	add.w	r3, r3, #1073741824	; 0x40000000
		_usb_d_dev_dma_next(ept);
  4010b4:	4438      	add	r0, r7
  4010b6:	f503 3360 	add.w	r3, r3, #229376	; 0x38000
  4010ba:	f8d3 2100 	ldr.w	r2, [r3, #256]	; 0x100
  4010be:	f442 7200 	orr.w	r2, r2, #512	; 0x200
  4010c2:	f8c3 2100 	str.w	r2, [r3, #256]	; 0x100
  4010c6:	4b16      	ldr	r3, [pc, #88]	; (401120 <_usb_d_dev_ep_trans+0x138>)
  4010c8:	4798      	blx	r3
	return ERR_NONE;
  4010ca:	2000      	movs	r0, #0
}
  4010cc:	e7b9      	b.n	401042 <_usb_d_dev_ep_trans+0x5a>
		if (!is_ctrl) {
  4010ce:	f008 0807 	and.w	r8, r8, #7
  4010d2:	f1b8 0f01 	cmp.w	r8, #1
  4010d6:	d005      	beq.n	4010e4 <_usb_d_dev_ep_trans+0xfc>
			hri_usbhs_set_DEVIMR_reg(hw, (USBHS_DEVIER_PEP_0 << epn));
  4010d8:	f44f 5080 	mov.w	r0, #4096	; 0x1000
	((Usbhs *)hw)->USBHS_DEVIER = mask;
  4010dc:	4a11      	ldr	r2, [pc, #68]	; (401124 <_usb_d_dev_ep_trans+0x13c>)
  4010de:	fa00 f505 	lsl.w	r5, r0, r5
  4010e2:	6195      	str	r5, [r2, #24]
	((Usbhs *)hw)->USBHS_DEVEPTCFG[index] &= ~USBHS_DEVEPTCFG_AUTOSW;
  4010e4:	009b      	lsls	r3, r3, #2
		if (dir) {
  4010e6:	2e00      	cmp	r6, #0
  4010e8:	f103 4380 	add.w	r3, r3, #1073741824	; 0x40000000
  4010ec:	f503 3360 	add.w	r3, r3, #229376	; 0x38000
  4010f0:	f8d3 2100 	ldr.w	r2, [r3, #256]	; 0x100
  4010f4:	f422 7200 	bic.w	r2, r2, #512	; 0x200
  4010f8:	f8c3 2100 	str.w	r2, [r3, #256]	; 0x100
	((Usbhs *)hw)->USBHS_DEVEPTIER[index] = data;
  4010fc:	bfb4      	ite	lt
  4010fe:	2201      	movlt	r2, #1
  401100:	2202      	movge	r2, #2
  401102:	f8c3 21f0 	str.w	r2, [r3, #496]	; 0x1f0
  401106:	e7e0      	b.n	4010ca <_usb_d_dev_ep_trans+0xe2>
		return -USB_ERR_PARAM;
  401108:	f06f 0011 	mvn.w	r0, #17
  40110c:	e799      	b.n	401042 <_usb_d_dev_ep_trans+0x5a>
		return USB_HALTED;
  40110e:	2002      	movs	r0, #2
  401110:	e797      	b.n	401042 <_usb_d_dev_ep_trans+0x5a>
  401112:	bf00      	nop
  401114:	20400180 	.word	0x20400180
  401118:	00402099 	.word	0x00402099
  40111c:	004020a7 	.word	0x004020a7
  401120:	00400629 	.word	0x00400629
  401124:	40038000 	.word	0x40038000

00401128 <_usb_d_dev_register_callback>:
	return USB_OK;
}

void _usb_d_dev_register_callback(const enum usb_d_cb_type type, const FUNC_PTR func)
{
	FUNC_PTR f = (func == NULL) ? (FUNC_PTR)_dummy_func_no_return : (FUNC_PTR)func;
  401128:	4b06      	ldr	r3, [pc, #24]	; (401144 <_usb_d_dev_register_callback+0x1c>)
  40112a:	2900      	cmp	r1, #0
  40112c:	bf08      	it	eq
  40112e:	4619      	moveq	r1, r3

	if (type == USB_D_CB_EVENT) {
  401130:	2801      	cmp	r0, #1
  401132:	d102      	bne.n	40113a <_usb_d_dev_register_callback+0x12>
		dev_inst.callbacks.event = (_usb_d_dev_event_cb_t)f;
  401134:	4b04      	ldr	r3, [pc, #16]	; (401148 <_usb_d_dev_register_callback+0x20>)
  401136:	6059      	str	r1, [r3, #4]
  401138:	4770      	bx	lr
	} else if (type == USB_D_CB_SOF) {
  40113a:	b908      	cbnz	r0, 401140 <_usb_d_dev_register_callback+0x18>
		dev_inst.callbacks.sof = (_usb_d_dev_sof_cb_t)f;
  40113c:	4b02      	ldr	r3, [pc, #8]	; (401148 <_usb_d_dev_register_callback+0x20>)
  40113e:	6019      	str	r1, [r3, #0]
	}
}
  401140:	4770      	bx	lr
  401142:	bf00      	nop
  401144:	00400521 	.word	0x00400521
  401148:	20400180 	.word	0x20400180

0040114c <_usb_d_dev_register_ep_callback>:

void _usb_d_dev_register_ep_callback(const enum usb_d_dev_ep_cb_type type, const FUNC_PTR func)
{
	FUNC_PTR f = (func == NULL) ? (FUNC_PTR)_dummy_func_no_return : (FUNC_PTR)func;
  40114c:	4b08      	ldr	r3, [pc, #32]	; (401170 <_usb_d_dev_register_ep_callback+0x24>)
  40114e:	2900      	cmp	r1, #0
  401150:	bf08      	it	eq
  401152:	4619      	moveq	r1, r3

	if (type == USB_D_DEV_EP_CB_SETUP) {
  401154:	b910      	cbnz	r0, 40115c <_usb_d_dev_register_ep_callback+0x10>
		dev_inst.ep_callbacks.setup = (_usb_d_dev_ep_cb_setup_t)f;
  401156:	4b07      	ldr	r3, [pc, #28]	; (401174 <_usb_d_dev_register_ep_callback+0x28>)
  401158:	6099      	str	r1, [r3, #8]
  40115a:	4770      	bx	lr
	} else if (type == USB_D_DEV_EP_CB_MORE) {
  40115c:	2801      	cmp	r0, #1
  40115e:	d102      	bne.n	401166 <_usb_d_dev_register_ep_callback+0x1a>
		dev_inst.ep_callbacks.more = (_usb_d_dev_ep_cb_more_t)f;
  401160:	4b04      	ldr	r3, [pc, #16]	; (401174 <_usb_d_dev_register_ep_callback+0x28>)
  401162:	60d9      	str	r1, [r3, #12]
  401164:	4770      	bx	lr
	} else if (type == USB_D_DEV_EP_CB_DONE) {
  401166:	2802      	cmp	r0, #2
		dev_inst.ep_callbacks.done = (_usb_d_dev_ep_cb_done_t)f;
  401168:	bf04      	itt	eq
  40116a:	4b02      	ldreq	r3, [pc, #8]	; (401174 <_usb_d_dev_register_ep_callback+0x28>)
  40116c:	6119      	streq	r1, [r3, #16]
	}
}
  40116e:	4770      	bx	lr
  401170:	00400521 	.word	0x00400521
  401174:	20400180 	.word	0x20400180

00401178 <_init_chip>:

/**
 * \brief Initialize the hardware abstraction layer
 */
void _init_chip(void)
{
  401178:	b507      	push	{r0, r1, r2, lr}
/**
 * \brief Enable FPU
 */
static inline void _fpu_enable(void)
{
	CRITICAL_SECTION_ENTER()
  40117a:	4b0e      	ldr	r3, [pc, #56]	; (4011b4 <_init_chip+0x3c>)
  40117c:	a801      	add	r0, sp, #4
  40117e:	4798      	blx	r3
	/** Set bits 20-23 to enable CP10 and CP11 coprocessors */
	SCB->CPACR |= (0xFu << 20);
  401180:	4a0d      	ldr	r2, [pc, #52]	; (4011b8 <_init_chip+0x40>)
  401182:	f8d2 3088 	ldr.w	r3, [r2, #136]	; 0x88
  401186:	f443 0370 	orr.w	r3, r3, #15728640	; 0xf00000
  40118a:	f8c2 3088 	str.w	r3, [r2, #136]	; 0x88
  \details Acts as a special kind of Data Memory Barrier.
           It completes when all explicit memory accesses before this instruction complete.
 */
__STATIC_FORCEINLINE void __DSB(void)
{
  __ASM volatile ("dsb 0xF":::"memory");
  40118e:	f3bf 8f4f 	dsb	sy
  __ASM volatile ("isb 0xF":::"memory");
  401192:	f3bf 8f6f 	isb	sy
	__DSB();
	__ISB();
	CRITICAL_SECTION_LEAVE()
  401196:	4b09      	ldr	r3, [pc, #36]	; (4011bc <_init_chip+0x44>)
  401198:	a801      	add	r0, sp, #4
  40119a:	4798      	blx	r3

static inline void hri_efc_write_EEFC_FMR_FWS_bf(const void *const hw, hri_efc_eefc_fmr_reg_t data)
{
	uint32_t tmp;
	EFC_CRITICAL_SECTION_ENTER();
	tmp = ((Efc *)hw)->EEFC_FMR;
  40119c:	4a08      	ldr	r2, [pc, #32]	; (4011c0 <_init_chip+0x48>)
  40119e:	6813      	ldr	r3, [r2, #0]
	tmp &= ~EEFC_FMR_FWS_Msk;
  4011a0:	f423 6370 	bic.w	r3, r3, #3840	; 0xf00
	tmp |= EEFC_FMR_FWS(data);
  4011a4:	f443 63c0 	orr.w	r3, r3, #1536	; 0x600
	((Efc *)hw)->EEFC_FMR = tmp;
  4011a8:	6013      	str	r3, [r2, #0]
#if CONF_DMA_ENABLE
	_pmc_enable_periph_clock(ID_XDMAC);
	_dma_init();

#endif
	_pmc_init();
  4011aa:	4b06      	ldr	r3, [pc, #24]	; (4011c4 <_init_chip+0x4c>)
  4011ac:	4798      	blx	r3
}
  4011ae:	b003      	add	sp, #12
  4011b0:	f85d fb04 	ldr.w	pc, [sp], #4
  4011b4:	00402099 	.word	0x00402099
  4011b8:	e000ed00 	.word	0xe000ed00
  4011bc:	004020a7 	.word	0x004020a7
  4011c0:	400e0c00 	.word	0x400e0c00
  4011c4:	0040134d 	.word	0x0040134d

004011c8 <is_list_element>:
 * \brief Check whether element belongs to list
 */
bool is_list_element(const struct list_descriptor *const list, const void *const element)
{
	struct list_element *it;
	for (it = list->head; it; it = it->next) {
  4011c8:	6800      	ldr	r0, [r0, #0]
  4011ca:	b900      	cbnz	r0, 4011ce <is_list_element+0x6>
  4011cc:	4770      	bx	lr
		if (it == element) {
  4011ce:	4288      	cmp	r0, r1
  4011d0:	d1fa      	bne.n	4011c8 <is_list_element>
			return true;
  4011d2:	2001      	movs	r0, #1
		}
	}

	return false;
}
  4011d4:	4770      	bx	lr
	...

004011d8 <list_insert_at_end>:

/**
 * \brief Insert an element at list end
 */
void list_insert_at_end(struct list_descriptor *const list, void *const element)
{
  4011d8:	b570      	push	{r4, r5, r6, lr}
	struct list_element *it = list->head;

	ASSERT(!is_list_element(list, element));
  4011da:	4b0c      	ldr	r3, [pc, #48]	; (40120c <list_insert_at_end+0x34>)
{
  4011dc:	4606      	mov	r6, r0
  4011de:	460c      	mov	r4, r1
	struct list_element *it = list->head;
  4011e0:	6805      	ldr	r5, [r0, #0]
	ASSERT(!is_list_element(list, element));
  4011e2:	4798      	blx	r3
  4011e4:	f080 0001 	eor.w	r0, r0, #1
  4011e8:	4b09      	ldr	r3, [pc, #36]	; (401210 <list_insert_at_end+0x38>)
  4011ea:	224f      	movs	r2, #79	; 0x4f
  4011ec:	4909      	ldr	r1, [pc, #36]	; (401214 <list_insert_at_end+0x3c>)
  4011ee:	b2c0      	uxtb	r0, r0
  4011f0:	4798      	blx	r3

	if (!list->head) {
  4011f2:	6833      	ldr	r3, [r6, #0]
  4011f4:	b913      	cbnz	r3, 4011fc <list_insert_at_end+0x24>
		list->head                             = (struct list_element *)element;
  4011f6:	6034      	str	r4, [r6, #0]
		((struct list_element *)element)->next = NULL;
  4011f8:	6023      	str	r3, [r4, #0]
	while (it->next) {
		it = it->next;
	}
	it->next                               = (struct list_element *)element;
	((struct list_element *)element)->next = NULL;
}
  4011fa:	bd70      	pop	{r4, r5, r6, pc}
	while (it->next) {
  4011fc:	462b      	mov	r3, r5
  4011fe:	682d      	ldr	r5, [r5, #0]
  401200:	2d00      	cmp	r5, #0
  401202:	d1fb      	bne.n	4011fc <list_insert_at_end+0x24>
	it->next                               = (struct list_element *)element;
  401204:	601c      	str	r4, [r3, #0]
	((struct list_element *)element)->next = NULL;
  401206:	6025      	str	r5, [r4, #0]
  401208:	e7f7      	b.n	4011fa <list_insert_at_end+0x22>
  40120a:	bf00      	nop
  40120c:	004011c9 	.word	0x004011c9
  401210:	00401219 	.word	0x00401219
  401214:	00402141 	.word	0x00402141

00401218 <assert>:
/**
 * \brief Assert function
 */
void assert(const bool condition, const char *const file, const int line)
{
	if (!(condition)) {
  401218:	b900      	cbnz	r0, 40121c <assert+0x4>
		__asm("BKPT #0");
  40121a:	be00      	bkpt	0x0000
	}
	(void)file;
	(void)line;
}
  40121c:	4770      	bx	lr
	...

00401220 <usb_device_cb_bulk_in>:

/**
 * \brief Callback invoked when bulk IN data received
 */
static bool usb_device_cb_bulk_in(const uint8_t ep, const enum usb_xfer_code rc, const uint32_t count)
{
  401220:	b508      	push	{r3, lr}
	/* Echo data. */
	cdcdf_acm_read((uint8_t *)usbd_cdc_buffer, sizeof(usbd_cdc_buffer));
  401222:	f44f 7100 	mov.w	r1, #512	; 0x200
  401226:	4b02      	ldr	r3, [pc, #8]	; (401230 <usb_device_cb_bulk_in+0x10>)
  401228:	4802      	ldr	r0, [pc, #8]	; (401234 <usb_device_cb_bulk_in+0x14>)
  40122a:	4798      	blx	r3

	/* No error. */
	return false;
}
  40122c:	2000      	movs	r0, #0
  40122e:	bd08      	pop	{r3, pc}
  401230:	00400415 	.word	0x00400415
  401234:	204001e4 	.word	0x204001e4

00401238 <usb_device_cb_bulk_out>:
{
  401238:	b508      	push	{r3, lr}
	cdcdf_acm_write((uint8_t *)usbd_cdc_buffer, count);
  40123a:	4611      	mov	r1, r2
  40123c:	4b02      	ldr	r3, [pc, #8]	; (401248 <usb_device_cb_bulk_out+0x10>)
  40123e:	4803      	ldr	r0, [pc, #12]	; (40124c <usb_device_cb_bulk_out+0x14>)
  401240:	4798      	blx	r3
}
  401242:	2000      	movs	r0, #0
  401244:	bd08      	pop	{r3, pc}
  401246:	bf00      	nop
  401248:	00400441 	.word	0x00400441
  40124c:	204001e4 	.word	0x204001e4

00401250 <usb_device_cb_state_c>:
/**
 * \brief Callback invoked when Line State Change
 */
static bool usb_device_cb_state_c(usb_cdc_control_signal_t state)
{
	if (state.rs232.DTR) {
  401250:	07c3      	lsls	r3, r0, #31
{
  401252:	b513      	push	{r0, r1, r4, lr}
  401254:	f8ad 0004 	strh.w	r0, [sp, #4]
	if (state.rs232.DTR) {
  401258:	d50b      	bpl.n	401272 <usb_device_cb_state_c+0x22>
		/* Callbacks must be registered after endpoint allocation */
		cdcdf_acm_register_callback(CDCDF_ACM_CB_READ, (FUNC_PTR)usb_device_cb_bulk_out);
  40125a:	4907      	ldr	r1, [pc, #28]	; (401278 <usb_device_cb_state_c+0x28>)
  40125c:	2000      	movs	r0, #0
  40125e:	4c07      	ldr	r4, [pc, #28]	; (40127c <usb_device_cb_state_c+0x2c>)
  401260:	47a0      	blx	r4
		cdcdf_acm_register_callback(CDCDF_ACM_CB_WRITE, (FUNC_PTR)usb_device_cb_bulk_in);
  401262:	4907      	ldr	r1, [pc, #28]	; (401280 <usb_device_cb_state_c+0x30>)
  401264:	2001      	movs	r0, #1
  401266:	47a0      	blx	r4
		/* Start Rx */
		cdcdf_acm_read((uint8_t *)usbd_cdc_buffer, sizeof(usbd_cdc_buffer));
  401268:	f44f 7100 	mov.w	r1, #512	; 0x200
  40126c:	4805      	ldr	r0, [pc, #20]	; (401284 <usb_device_cb_state_c+0x34>)
  40126e:	4b06      	ldr	r3, [pc, #24]	; (401288 <usb_device_cb_state_c+0x38>)
  401270:	4798      	blx	r3
	}

	/* No error. */
	return false;
}
  401272:	2000      	movs	r0, #0
  401274:	b002      	add	sp, #8
  401276:	bd10      	pop	{r4, pc}
  401278:	00401239 	.word	0x00401239
  40127c:	0040046d 	.word	0x0040046d
  401280:	00401221 	.word	0x00401221
  401284:	204001e4 	.word	0x204001e4
  401288:	00400415 	.word	0x00400415

0040128c <cdc_device_acm_init>:

/**
 * \brief CDC ACM Init
 */
void cdc_device_acm_init(void)
{
  40128c:	b510      	push	{r4, lr}
	/* usb stack init */
	usbdc_init(ctrl_buffer);
  40128e:	4b06      	ldr	r3, [pc, #24]	; (4012a8 <cdc_device_acm_init+0x1c>)
  401290:	4806      	ldr	r0, [pc, #24]	; (4012ac <cdc_device_acm_init+0x20>)
  401292:	4798      	blx	r3

	/* usbdc_register_funcion inside */
	cdcdf_acm_init();
  401294:	4b06      	ldr	r3, [pc, #24]	; (4012b0 <cdc_device_acm_init+0x24>)
  401296:	4798      	blx	r3

	usbdc_start(single_desc);
  401298:	4b06      	ldr	r3, [pc, #24]	; (4012b4 <cdc_device_acm_init+0x28>)
  40129a:	4807      	ldr	r0, [pc, #28]	; (4012b8 <cdc_device_acm_init+0x2c>)
  40129c:	4798      	blx	r3
	usbdc_attach();
  40129e:	4b07      	ldr	r3, [pc, #28]	; (4012bc <cdc_device_acm_init+0x30>)
}
  4012a0:	e8bd 4010 	ldmia.w	sp!, {r4, lr}
	usbdc_attach();
  4012a4:	4718      	bx	r3
  4012a6:	bf00      	nop
  4012a8:	00401f75 	.word	0x00401f75
  4012ac:	204003e4 	.word	0x204003e4
  4012b0:	004003d1 	.word	0x004003d1
  4012b4:	00401fe1 	.word	0x00401fe1
  4012b8:	20400008 	.word	0x20400008
  4012bc:	0040201d 	.word	0x0040201d

004012c0 <cdcd_acm_example>:
 * - Open a HyperTerminal or other COM tools in PC side.
 * - Send out a character or string and it will echo the content received.
 */
void cdcd_acm_example(void)
{
	while (!cdcdf_acm_is_enabled()) {
  4012c0:	4c04      	ldr	r4, [pc, #16]	; (4012d4 <cdcd_acm_example+0x14>)
{
  4012c2:	b508      	push	{r3, lr}
	while (!cdcdf_acm_is_enabled()) {
  4012c4:	47a0      	blx	r4
  4012c6:	2800      	cmp	r0, #0
  4012c8:	d0fc      	beq.n	4012c4 <cdcd_acm_example+0x4>
		// wait cdc acm to be installed
	};

	cdcdf_acm_register_callback(CDCDF_ACM_CB_STATE_C, (FUNC_PTR)usb_device_cb_state_c);
  4012ca:	4903      	ldr	r1, [pc, #12]	; (4012d8 <cdcd_acm_example+0x18>)
  4012cc:	2003      	movs	r0, #3
  4012ce:	4b03      	ldr	r3, [pc, #12]	; (4012dc <cdcd_acm_example+0x1c>)
  4012d0:	4798      	blx	r3

	while (1) {
  4012d2:	e7fe      	b.n	4012d2 <cdcd_acm_example+0x12>
  4012d4:	004004ad 	.word	0x004004ad
  4012d8:	00401251 	.word	0x00401251
  4012dc:	0040046d 	.word	0x0040046d

004012e0 <usb_init>:
}

void usb_init(void)
{

	cdc_device_acm_init();
  4012e0:	4b00      	ldr	r3, [pc, #0]	; (4012e4 <usb_init+0x4>)
  4012e2:	4718      	bx	r3
  4012e4:	0040128d 	.word	0x0040128d

004012e8 <MCAN0_INT0_Handler>:

/**
 * \internal CAN interrupt handler
 */
void MCAN0_INT0_Handler(void)
{
  4012e8:	b538      	push	{r3, r4, r5, lr}
	_can_irq_handler(_can0_dev);
  4012ea:	4b17      	ldr	r3, [pc, #92]	; (401348 <MCAN0_INT0_Handler+0x60>)
  4012ec:	6a9c      	ldr	r4, [r3, #40]	; 0x28
	ir = hri_mcan_read_IR_reg(dev->hw);
  4012ee:	6823      	ldr	r3, [r4, #0]
	MCAN_CRITICAL_SECTION_LEAVE();
}

static inline hri_mcan_ir_reg_t hri_mcan_read_IR_reg(const void *const hw)
{
	return ((Mcan *)hw)->MCAN_IR;
  4012f0:	6d1d      	ldr	r5, [r3, #80]	; 0x50
	if (ir & MCAN_IR_RF0N) {
  4012f2:	07e8      	lsls	r0, r5, #31
  4012f4:	d502      	bpl.n	4012fc <MCAN0_INT0_Handler+0x14>
		dev->cb.rx_done(dev);
  4012f6:	68a3      	ldr	r3, [r4, #8]
  4012f8:	4620      	mov	r0, r4
  4012fa:	4798      	blx	r3
	if (ir & MCAN_IR_TC) {
  4012fc:	05aa      	lsls	r2, r5, #22
  4012fe:	d502      	bpl.n	401306 <MCAN0_INT0_Handler+0x1e>
		dev->cb.tx_done(dev);
  401300:	6863      	ldr	r3, [r4, #4]
  401302:	4620      	mov	r0, r4
  401304:	4798      	blx	r3
	if (ir & MCAN_IR_BO) {
  401306:	01ab      	lsls	r3, r5, #6
  401308:	d503      	bpl.n	401312 <MCAN0_INT0_Handler+0x2a>
		dev->cb.irq_handler(dev, CAN_IRQ_BO);
  40130a:	68e3      	ldr	r3, [r4, #12]
  40130c:	2103      	movs	r1, #3
  40130e:	4620      	mov	r0, r4
  401310:	4798      	blx	r3
	if (ir & MCAN_IR_EW) {
  401312:	01e8      	lsls	r0, r5, #7
  401314:	d503      	bpl.n	40131e <MCAN0_INT0_Handler+0x36>
		dev->cb.irq_handler(dev, CAN_IRQ_EW);
  401316:	68e3      	ldr	r3, [r4, #12]
  401318:	2100      	movs	r1, #0
  40131a:	4620      	mov	r0, r4
  40131c:	4798      	blx	r3
	if (ir & MCAN_IR_EP) {
  40131e:	022a      	lsls	r2, r5, #8
  401320:	d509      	bpl.n	401336 <MCAN0_INT0_Handler+0x4e>
		dev->cb.irq_handler(dev, hri_mcan_get_PSR_EP_bit(dev->hw) ? CAN_IRQ_EP : CAN_IRQ_EA);
  401322:	6822      	ldr	r2, [r4, #0]
  401324:	4620      	mov	r0, r4
  401326:	68e3      	ldr	r3, [r4, #12]
	return (((Mcan *)hw)->MCAN_PSR & MCAN_PSR_EP) > 0;
  401328:	6c52      	ldr	r2, [r2, #68]	; 0x44
  40132a:	f012 0f20 	tst.w	r2, #32
  40132e:	bf14      	ite	ne
  401330:	2102      	movne	r1, #2
  401332:	2101      	moveq	r1, #1
  401334:	4798      	blx	r3
	if (ir & MCAN_IR_RF0L) {
  401336:	072b      	lsls	r3, r5, #28
  401338:	d503      	bpl.n	401342 <MCAN0_INT0_Handler+0x5a>
		dev->cb.irq_handler(dev, CAN_IRQ_DO);
  40133a:	68e3      	ldr	r3, [r4, #12]
  40133c:	2104      	movs	r1, #4
  40133e:	4620      	mov	r0, r4
  401340:	4798      	blx	r3
	hri_mcan_write_IR_reg(dev->hw, ir);
  401342:	6823      	ldr	r3, [r4, #0]
	((Mcan *)hw)->MCAN_IR = data;
  401344:	651d      	str	r5, [r3, #80]	; 0x50
}
  401346:	bd38      	pop	{r3, r4, r5, pc}
  401348:	20400424 	.word	0x20400424

0040134c <_pmc_init>:
	PMC_CRITICAL_SECTION_LEAVE();
}

static inline hri_pmc_ckgr_mor_reg_t hri_pmc_read_CKGR_MOR_reg(const void *const hw)
{
	return ((Pmc *)hw)->CKGR_MOR;
  40134c:	4b1a      	ldr	r3, [pc, #104]	; (4013b8 <_pmc_init+0x6c>)
	data = hri_pmc_read_CKGR_MOR_reg(PMC) & ~CKGR_MOR_MOSCXTEN;
	data |= CKGR_MOR_KEY_PASSWD | CKGR_MOR_MOSCXTBY | CKGR_MOR_MOSCSEL;
	hri_pmc_write_CKGR_MOR_reg(PMC, data);
#else
	data = hri_pmc_read_CKGR_MOR_reg(PMC) & ~CKGR_MOR_MOSCXTBY;
	data |= CKGR_MOR_KEY_PASSWD | CKGR_MOR_MOSCXTEN | CKGR_MOR_MOSCXTST(CONF_XOSC20M_STARTUP_TIME);
  40134e:	4a1b      	ldr	r2, [pc, #108]	; (4013bc <_pmc_init+0x70>)
  401350:	6a19      	ldr	r1, [r3, #32]
	data = hri_pmc_read_CKGR_MOR_reg(PMC) & ~CKGR_MOR_MOSCXTBY;
  401352:	f021 0102 	bic.w	r1, r1, #2
	data |= CKGR_MOR_KEY_PASSWD | CKGR_MOR_MOSCXTEN | CKGR_MOR_MOSCXTST(CONF_XOSC20M_STARTUP_TIME);
  401356:	430a      	orrs	r2, r1
	((Pmc *)hw)->CKGR_MOR = data;
  401358:	621a      	str	r2, [r3, #32]
	return (((Pmc *)hw)->PMC_SR & PMC_SR_MOSCXTS) > 0;
  40135a:	6e9a      	ldr	r2, [r3, #104]	; 0x68
	hri_pmc_write_CKGR_MOR_reg(PMC, data);
	while (!hri_pmc_get_SR_MOSCXTS_bit(PMC)) {
  40135c:	07d1      	lsls	r1, r2, #31
  40135e:	d5fc      	bpl.n	40135a <_pmc_init+0xe>
	((Pmc *)hw)->CKGR_MOR |= mask;
  401360:	6a1a      	ldr	r2, [r3, #32]
  401362:	f042 729b 	orr.w	r2, r2, #20316160	; 0x1360000
  401366:	f442 3280 	orr.w	r2, r2, #65536	; 0x10000
  40136a:	621a      	str	r2, [r3, #32]

static inline void hri_pmc_write_CKGR_PLLAR_MULA_bf(const void *const hw, hri_pmc_ckgr_pllar_reg_t data)
{
	uint32_t tmp;
	PMC_CRITICAL_SECTION_ENTER();
	tmp = ((Pmc *)hw)->CKGR_PLLAR;
  40136c:	6a9a      	ldr	r2, [r3, #40]	; 0x28
	tmp &= ~CKGR_PLLAR_MULA_Msk;
  40136e:	f022 62ff 	bic.w	r2, r2, #133693440	; 0x7f80000
  401372:	f422 22e0 	bic.w	r2, r2, #458752	; 0x70000
	tmp |= CKGR_PLLAR_MULA(data);
	((Pmc *)hw)->CKGR_PLLAR = tmp;
  401376:	629a      	str	r2, [r3, #40]	; 0x28
}

static inline void hri_pmc_write_CKGR_PLLAR_reg(const void *const hw, hri_pmc_ckgr_pllar_reg_t data)
{
	PMC_CRITICAL_SECTION_ENTER();
	((Pmc *)hw)->CKGR_PLLAR = data;
  401378:	4a11      	ldr	r2, [pc, #68]	; (4013c0 <_pmc_init+0x74>)
  40137a:	629a      	str	r2, [r3, #40]	; 0x28
	return (((Pmc *)hw)->PMC_SR & PMC_SR_LOCKA) > 0;
  40137c:	6e9a      	ldr	r2, [r3, #104]	; 0x68
#if (CONF_PLLACK_ENABLE == 1)
	data = CKGR_PLLAR_MULA(CONF_PLLACK_MUL - 1) | CKGR_PLLAR_DIVA(CONF_PLLACK_DIV) | CKGR_PLLAR_PLLACOUNT(PLL_COUNT);
	/* Stop PLL first */
	hri_pmc_write_CKGR_PLLAR_MULA_bf(PMC, 0);
	hri_pmc_write_CKGR_PLLAR_reg(PMC, (CKGR_PLLAR_ONE | data));
	while (!hri_pmc_get_SR_LOCKA_bit(PMC)) {
  40137e:	0792      	lsls	r2, r2, #30
  401380:	d5fc      	bpl.n	40137c <_pmc_init+0x30>

static inline void hri_pmc_write_MCKR_PRES_bf(const void *const hw, hri_pmc_mckr_reg_t data)
{
	uint32_t tmp;
	PMC_CRITICAL_SECTION_ENTER();
	tmp = ((Pmc *)hw)->PMC_MCKR;
  401382:	6b1a      	ldr	r2, [r3, #48]	; 0x30
	tmp &= ~PMC_MCKR_PRES_Msk;
  401384:	f022 0270 	bic.w	r2, r2, #112	; 0x70
	tmp |= PMC_MCKR_PRES(data);
	((Pmc *)hw)->PMC_MCKR = tmp;
  401388:	631a      	str	r2, [r3, #48]	; 0x30
	return (((Pmc *)hw)->PMC_SR & PMC_SR_MCKRDY) > 0;
  40138a:	6e9a      	ldr	r2, [r3, #104]	; 0x68
	while (!hri_pmc_get_SR_MCKRDY_bit(PMC)) {
		/* Wait until master clock is ready */
	}
#elif ((CONF_CLK_GEN_MCKR_SRC == CLK_SRC_OPTION_PLLACK) || (CONF_CLK_GEN_MCKR_SRC == CLK_SRC_OPTION_UPLLCKDIV))
	hri_pmc_write_MCKR_PRES_bf(PMC, CONF_MCKR_PRESC);
	while (!hri_pmc_get_SR_MCKRDY_bit(PMC)) {
  40138c:	0710      	lsls	r0, r2, #28
  40138e:	d5fc      	bpl.n	40138a <_pmc_init+0x3e>

static inline void hri_pmc_write_MCKR_MDIV_bf(const void *const hw, hri_pmc_mckr_reg_t data)
{
	uint32_t tmp;
	PMC_CRITICAL_SECTION_ENTER();
	tmp = ((Pmc *)hw)->PMC_MCKR;
  401390:	6b1a      	ldr	r2, [r3, #48]	; 0x30
	tmp &= ~PMC_MCKR_MDIV_Msk;
  401392:	f422 7240 	bic.w	r2, r2, #768	; 0x300
	tmp |= PMC_MCKR_MDIV(data);
  401396:	f442 7280 	orr.w	r2, r2, #256	; 0x100
	((Pmc *)hw)->PMC_MCKR = tmp;
  40139a:	631a      	str	r2, [r3, #48]	; 0x30
	return (((Pmc *)hw)->PMC_SR & PMC_SR_MCKRDY) > 0;
  40139c:	6e9a      	ldr	r2, [r3, #104]	; 0x68
		/* Wait until master clock is ready */
	}
	hri_pmc_write_MCKR_MDIV_bf(PMC, CONF_MCK_DIV);
	while (!hri_pmc_get_SR_MCKRDY_bit(PMC)) {
  40139e:	0711      	lsls	r1, r2, #28
  4013a0:	d5fc      	bpl.n	40139c <_pmc_init+0x50>
	tmp = ((Pmc *)hw)->PMC_MCKR;
  4013a2:	6b1a      	ldr	r2, [r3, #48]	; 0x30
	tmp &= ~PMC_MCKR_CSS_Msk;
  4013a4:	f022 0203 	bic.w	r2, r2, #3
	tmp |= PMC_MCKR_CSS(data);
  4013a8:	f042 0202 	orr.w	r2, r2, #2
	((Pmc *)hw)->PMC_MCKR = tmp;
  4013ac:	631a      	str	r2, [r3, #48]	; 0x30
	return (((Pmc *)hw)->PMC_SR & PMC_SR_MCKRDY) > 0;
  4013ae:	6e9a      	ldr	r2, [r3, #104]	; 0x68
		/* Wait until master clock is ready */
	}
	hri_pmc_write_MCKR_CSS_bf(PMC, CONF_CLK_GEN_MCKR_SRC);
	while (!hri_pmc_get_SR_MCKRDY_bit(PMC)) {
  4013b0:	0712      	lsls	r2, r2, #28
  4013b2:	d5fc      	bpl.n	4013ae <_pmc_init+0x62>
{
	_pmc_init_sources();
	_pmc_init_master_clock();
	_pmc_init_program_clock();
	_pmc_init_fs_clock();
}
  4013b4:	4770      	bx	lr
  4013b6:	bf00      	nop
  4013b8:	400e0600 	.word	0x400e0600
  4013bc:	00373e01 	.word	0x00373e01
  4013c0:	20183f01 	.word	0x20183f01

004013c4 <usb_find_desc>:
#define _param_error_check(cond) ASSERT(cond)
#define _desc_len_check() ASSERT(usb_desc_len(desc) >= 2)
#endif

uint8_t *usb_find_desc(uint8_t *desc, uint8_t *eof, uint8_t type)
{
  4013c4:	b510      	push	{r4, lr}
	_param_error_check(desc && eof && (desc < eof));

	while (desc < eof) {
  4013c6:	4288      	cmp	r0, r1
  4013c8:	d301      	bcc.n	4013ce <usb_find_desc+0xa>
		_desc_len_check();
  4013ca:	2000      	movs	r0, #0
			return desc;
		}
		desc = usb_desc_next(desc);
	}
	return NULL;
}
  4013cc:	bd10      	pop	{r4, pc}
		_desc_len_check();
  4013ce:	7803      	ldrb	r3, [r0, #0]
  4013d0:	2b01      	cmp	r3, #1
  4013d2:	d9fa      	bls.n	4013ca <usb_find_desc+0x6>
		if (type == usb_desc_type(desc)) {
  4013d4:	7844      	ldrb	r4, [r0, #1]
  4013d6:	4294      	cmp	r4, r2
  4013d8:	d0f8      	beq.n	4013cc <usb_find_desc+0x8>
  4013da:	4418      	add	r0, r3
  4013dc:	e7f3      	b.n	4013c6 <usb_find_desc+0x2>

004013de <usb_find_ep_desc>:

uint8_t *usb_find_ep_desc(uint8_t *desc, uint8_t *eof)
{
	_param_error_check(desc && eof && (desc < eof));

	while (desc < eof) {
  4013de:	4288      	cmp	r0, r1
  4013e0:	d301      	bcc.n	4013e6 <usb_find_ep_desc+0x8>
		_desc_len_check();
  4013e2:	2000      	movs	r0, #0
			return desc;
		}
		desc = usb_desc_next(desc);
	}
	return NULL;
}
  4013e4:	4770      	bx	lr
		_desc_len_check();
  4013e6:	7803      	ldrb	r3, [r0, #0]
  4013e8:	2b01      	cmp	r3, #1
  4013ea:	d9fa      	bls.n	4013e2 <usb_find_ep_desc+0x4>
	return desc[1];
  4013ec:	7842      	ldrb	r2, [r0, #1]
		if (USB_DT_INTERFACE == usb_desc_type(desc)) {
  4013ee:	2a04      	cmp	r2, #4
  4013f0:	d0f7      	beq.n	4013e2 <usb_find_ep_desc+0x4>
		if (USB_DT_ENDPOINT == usb_desc_type(desc)) {
  4013f2:	2a05      	cmp	r2, #5
  4013f4:	d0f6      	beq.n	4013e4 <usb_find_ep_desc+0x6>
	return (desc + usb_desc_len(desc));
  4013f6:	4418      	add	r0, r3
  4013f8:	e7f1      	b.n	4013de <usb_find_ep_desc>
	...

004013fc <usb_find_cfg_desc>:

uint8_t *usb_find_cfg_desc(uint8_t *desc, uint8_t *eof, uint8_t cfg_value)
{
  4013fc:	b538      	push	{r3, r4, r5, lr}
  4013fe:	4615      	mov	r5, r2
	_param_error_check(desc && eof && (desc < eof));

	desc = usb_find_desc(desc, eof, USB_DT_CONFIG);
  401400:	4b0c      	ldr	r3, [pc, #48]	; (401434 <usb_find_cfg_desc+0x38>)
  401402:	2202      	movs	r2, #2
{
  401404:	460c      	mov	r4, r1
	desc = usb_find_desc(desc, eof, USB_DT_CONFIG);
  401406:	4798      	blx	r3
	if (!desc) {
  401408:	b978      	cbnz	r0, 40142a <usb_find_cfg_desc+0x2e>
			return desc;
		}
		desc = usb_cfg_desc_next(desc);
	}
	return NULL;
}
  40140a:	bd38      	pop	{r3, r4, r5, pc}
		_desc_len_check();
  40140c:	7803      	ldrb	r3, [r0, #0]
  40140e:	2b01      	cmp	r3, #1
  401410:	d90d      	bls.n	40142e <usb_find_cfg_desc+0x32>
		if (desc[1] != USB_DT_CONFIG) {
  401412:	7843      	ldrb	r3, [r0, #1]
  401414:	2b02      	cmp	r3, #2
  401416:	d10a      	bne.n	40142e <usb_find_cfg_desc+0x32>
		if (desc[5] == cfg_value) {
  401418:	7943      	ldrb	r3, [r0, #5]
  40141a:	42ab      	cmp	r3, r5
  40141c:	d0f5      	beq.n	40140a <usb_find_cfg_desc+0xe>
	return (ptr[0] + (ptr[1] << 8));
  40141e:	78c2      	ldrb	r2, [r0, #3]
  401420:	7883      	ldrb	r3, [r0, #2]
  401422:	eb03 2302 	add.w	r3, r3, r2, lsl #8
 *  \param[in] cfg_desc Byte pointer to the descriptor start address
 *  \return Byte pointer to descriptor after configuration end
 */
static inline uint8_t *usb_cfg_desc_next(uint8_t *cfg_desc)
{
	return (cfg_desc + usb_cfg_desc_total_len(cfg_desc));
  401426:	fa10 f083 	uxtah	r0, r0, r3
	while (desc < eof) {
  40142a:	42a0      	cmp	r0, r4
  40142c:	d3ee      	bcc.n	40140c <usb_find_cfg_desc+0x10>
		return NULL;
  40142e:	2000      	movs	r0, #0
  401430:	e7eb      	b.n	40140a <usb_find_cfg_desc+0xe>
  401432:	bf00      	nop
  401434:	004013c5 	.word	0x004013c5

00401438 <usb_find_othspdcfg_desc>:

uint8_t *usb_find_othspdcfg_desc(uint8_t *desc, uint8_t *eof, uint8_t cfg_value)
{
  401438:	b538      	push	{r3, r4, r5, lr}
  40143a:	4615      	mov	r5, r2
	_param_error_check(desc && eof && (desc < eof));

	desc = usb_find_desc(desc, eof, USB_DT_OTHER_SPEED_CONFIG);
  40143c:	4b0c      	ldr	r3, [pc, #48]	; (401470 <usb_find_othspdcfg_desc+0x38>)
  40143e:	2207      	movs	r2, #7
{
  401440:	460c      	mov	r4, r1
	desc = usb_find_desc(desc, eof, USB_DT_OTHER_SPEED_CONFIG);
  401442:	4798      	blx	r3
	if (!desc) {
  401444:	b978      	cbnz	r0, 401466 <usb_find_othspdcfg_desc+0x2e>
			return desc;
		}
		desc = usb_cfg_desc_next(desc);
	}
	return NULL;
}
  401446:	bd38      	pop	{r3, r4, r5, pc}
		_desc_len_check();
  401448:	7803      	ldrb	r3, [r0, #0]
  40144a:	2b01      	cmp	r3, #1
  40144c:	d90d      	bls.n	40146a <usb_find_othspdcfg_desc+0x32>
		if (desc[1] != USB_DT_OTHER_SPEED_CONFIG) {
  40144e:	7843      	ldrb	r3, [r0, #1]
  401450:	2b07      	cmp	r3, #7
  401452:	d10a      	bne.n	40146a <usb_find_othspdcfg_desc+0x32>
		if (desc[5] == cfg_value) {
  401454:	7943      	ldrb	r3, [r0, #5]
  401456:	42ab      	cmp	r3, r5
  401458:	d0f5      	beq.n	401446 <usb_find_othspdcfg_desc+0xe>
	return (ptr[0] + (ptr[1] << 8));
  40145a:	78c2      	ldrb	r2, [r0, #3]
  40145c:	7883      	ldrb	r3, [r0, #2]
  40145e:	eb03 2302 	add.w	r3, r3, r2, lsl #8
	return (cfg_desc + usb_cfg_desc_total_len(cfg_desc));
  401462:	fa10 f083 	uxtah	r0, r0, r3
	while (desc < eof) {
  401466:	42a0      	cmp	r0, r4
  401468:	d3ee      	bcc.n	401448 <usb_find_othspdcfg_desc+0x10>
		return NULL;
  40146a:	2000      	movs	r0, #0
  40146c:	e7eb      	b.n	401446 <usb_find_othspdcfg_desc+0xe>
  40146e:	bf00      	nop
  401470:	004013c5 	.word	0x004013c5

00401474 <usb_find_str_desc>:

uint8_t *usb_find_str_desc(uint8_t *desc, uint8_t *eof, uint8_t str_index)
{
  401474:	b570      	push	{r4, r5, r6, lr}
  401476:	4615      	mov	r5, r2
	uint8_t i;

	_param_error_check(desc && eof && (desc < eof));

	for (i = 0; desc < eof;) {
  401478:	2400      	movs	r4, #0
		desc = usb_find_desc(desc, eof, USB_DT_STRING);
  40147a:	4e08      	ldr	r6, [pc, #32]	; (40149c <usb_find_str_desc+0x28>)
	for (i = 0; desc < eof;) {
  40147c:	4288      	cmp	r0, r1
  40147e:	d301      	bcc.n	401484 <usb_find_str_desc+0x10>
				return desc;
			}
			i++;
			desc = usb_desc_next(desc);
		} else {
			return NULL;
  401480:	2000      	movs	r0, #0
		}
	}
	return NULL;
}
  401482:	bd70      	pop	{r4, r5, r6, pc}
		desc = usb_find_desc(desc, eof, USB_DT_STRING);
  401484:	2203      	movs	r2, #3
  401486:	47b0      	blx	r6
		if (desc) {
  401488:	2800      	cmp	r0, #0
  40148a:	d0fa      	beq.n	401482 <usb_find_str_desc+0xe>
			_desc_len_check();
  40148c:	7803      	ldrb	r3, [r0, #0]
  40148e:	2b01      	cmp	r3, #1
  401490:	d9f6      	bls.n	401480 <usb_find_str_desc+0xc>
			if (i == str_index) {
  401492:	42ac      	cmp	r4, r5
  401494:	d0f5      	beq.n	401482 <usb_find_str_desc+0xe>
	return (desc + usb_desc_len(desc));
  401496:	4418      	add	r0, r3
  401498:	3401      	adds	r4, #1
  40149a:	e7ef      	b.n	40147c <usb_find_str_desc+0x8>
  40149c:	004013c5 	.word	0x004013c5

004014a0 <_usb_d_find_ep>:
 * \return Index of endpoint descriptor.
 * \retval >=0 The index.
 * \retval <0 Not found (endpoint is not initialized).
 */
static int8_t _usb_d_find_ep(const uint8_t ep)
{
  4014a0:	b570      	push	{r4, r5, r6, lr}
  4014a2:	4a0a      	ldr	r2, [pc, #40]	; (4014cc <_usb_d_find_ep+0x2c>)
  4014a4:	2300      	movs	r3, #0
	for (i = 0; i < CONF_USB_D_NUM_EP_SP; i++) {
		if (usb_d_inst.ep[i].xfer.hdr.ep == ep) {
			return i;
		}
		if (usb_d_inst.ep[i].xfer.hdr.type == USB_EP_XTYPE_CTRL
		    && (ep & USB_EP_N_MASK) == usb_d_inst.ep[i].xfer.hdr.ep) {
  4014a6:	f000 050f 	and.w	r5, r0, #15
		if (usb_d_inst.ep[i].xfer.hdr.ep == ep) {
  4014aa:	7854      	ldrb	r4, [r2, #1]
  4014ac:	b259      	sxtb	r1, r3
  4014ae:	4284      	cmp	r4, r0
  4014b0:	d009      	beq.n	4014c6 <_usb_d_find_ep+0x26>
		if (usb_d_inst.ep[i].xfer.hdr.type == USB_EP_XTYPE_CTRL
  4014b2:	7816      	ldrb	r6, [r2, #0]
  4014b4:	b90e      	cbnz	r6, 4014ba <_usb_d_find_ep+0x1a>
		    && (ep & USB_EP_N_MASK) == usb_d_inst.ep[i].xfer.hdr.ep) {
  4014b6:	42ac      	cmp	r4, r5
  4014b8:	d005      	beq.n	4014c6 <_usb_d_find_ep+0x26>
	for (i = 0; i < CONF_USB_D_NUM_EP_SP; i++) {
  4014ba:	3301      	adds	r3, #1
  4014bc:	3220      	adds	r2, #32
  4014be:	2b04      	cmp	r3, #4
  4014c0:	d1f3      	bne.n	4014aa <_usb_d_find_ep+0xa>
			return i;
		}
	}
	return -1;
  4014c2:	f04f 31ff 	mov.w	r1, #4294967295	; 0xffffffff
}
  4014c6:	4608      	mov	r0, r1
  4014c8:	bd70      	pop	{r4, r5, r6, pc}
  4014ca:	bf00      	nop
  4014cc:	20400450 	.word	0x20400450

004014d0 <usb_d_dummy_cb_false>:
{
	(void)unused0;
	(void)unused1;
	(void)unused2;
	return false;
}
  4014d0:	2000      	movs	r0, #0
  4014d2:	4770      	bx	lr

004014d4 <usb_d_cb_trans_more>:
 * \brief Callback invoked when request more data
 * \param[in] ep Endpoint number with transfer direction on bit 8.
 * \param[in] transfered Number of bytes transfered.
 */
static bool usb_d_cb_trans_more(const uint8_t ep, const uint32_t transfered)
{
  4014d4:	b513      	push	{r0, r1, r4, lr}
	int8_t           ep_index = _usb_d_find_ep(ep);
  4014d6:	4b0a      	ldr	r3, [pc, #40]	; (401500 <usb_d_cb_trans_more+0x2c>)
{
  4014d8:	4604      	mov	r4, r0
  4014da:	9101      	str	r1, [sp, #4]
	int8_t           ep_index = _usb_d_find_ep(ep);
  4014dc:	4798      	blx	r3
	struct usb_d_ep *ept      = &usb_d_inst.ep[ep_index];
	if (ept->xfer.hdr.state == USB_EP_S_X_DATA) {
  4014de:	4b09      	ldr	r3, [pc, #36]	; (401504 <usb_d_cb_trans_more+0x30>)
  4014e0:	9901      	ldr	r1, [sp, #4]
  4014e2:	eb03 1340 	add.w	r3, r3, r0, lsl #5
  4014e6:	789a      	ldrb	r2, [r3, #2]
  4014e8:	2a03      	cmp	r2, #3
  4014ea:	d105      	bne.n	4014f8 <usb_d_cb_trans_more+0x24>
		return ept->callbacks.more(ep, transfered);
  4014ec:	699b      	ldr	r3, [r3, #24]
  4014ee:	4620      	mov	r0, r4
	}
	return false;
}
  4014f0:	b002      	add	sp, #8
  4014f2:	e8bd 4010 	ldmia.w	sp!, {r4, lr}
		return ept->callbacks.more(ep, transfered);
  4014f6:	4718      	bx	r3
}
  4014f8:	2000      	movs	r0, #0
  4014fa:	b002      	add	sp, #8
  4014fc:	bd10      	pop	{r4, pc}
  4014fe:	bf00      	nop
  401500:	004014a1 	.word	0x004014a1
  401504:	20400450 	.word	0x20400450

00401508 <_usb_d_cb_trans_done>:

/**
 * Callback when USB transactions are finished.
 */
static void _usb_d_cb_trans_done(const uint8_t ep, const int32_t code, const uint32_t transferred)
{
  401508:	e92d 43f0 	stmdb	sp!, {r4, r5, r6, r7, r8, r9, lr}
  40150c:	460f      	mov	r7, r1
  40150e:	b085      	sub	sp, #20
	int8_t           ep_index = _usb_d_find_ep(ep);
  401510:	4b37      	ldr	r3, [pc, #220]	; (4015f0 <_usb_d_cb_trans_done+0xe8>)
{
  401512:	4680      	mov	r8, r0
  401514:	4691      	mov	r9, r2
  401516:	4c37      	ldr	r4, [pc, #220]	; (4015f4 <_usb_d_cb_trans_done+0xec>)
	int8_t           ep_index = _usb_d_find_ep(ep);
  401518:	4798      	blx	r3
	struct usb_d_ep *ept      = &usb_d_inst.ep[ep_index];

	if (code == USB_TRANS_DONE) {
  40151a:	0146      	lsls	r6, r0, #5
  40151c:	2f00      	cmp	r7, #0
  40151e:	d145      	bne.n	4015ac <_usb_d_cb_trans_done+0xa4>
		ept->xfer.hdr.status = USB_XFER_DONE;
  401520:	19a5      	adds	r5, r4, r6
		if (ept->xfer.hdr.type == USB_EP_XTYPE_CTRL) {
  401522:	5da1      	ldrb	r1, [r4, r6]
		ept->xfer.hdr.status = USB_XFER_DONE;
  401524:	70ef      	strb	r7, [r5, #3]
		if (ept->xfer.hdr.type == USB_EP_XTYPE_CTRL) {
  401526:	2900      	cmp	r1, #0
  401528:	d137      	bne.n	40159a <_usb_d_cb_trans_done+0x92>
	if (state == USB_EP_S_X_DATA) {
  40152a:	2320      	movs	r3, #32
  40152c:	220c      	movs	r2, #12
  40152e:	fb13 2000 	smlabb	r0, r3, r0, r2
  401532:	78ab      	ldrb	r3, [r5, #2]
  401534:	2b03      	cmp	r3, #3
  401536:	eb04 0200 	add.w	r2, r4, r0
  40153a:	69eb      	ldr	r3, [r5, #28]
  40153c:	7868      	ldrb	r0, [r5, #1]
  40153e:	d128      	bne.n	401592 <_usb_d_cb_trans_done+0x8a>
		bool err = ept->callbacks.xfer(ept->xfer.hdr.ep, USB_XFER_DATA, ept->xfer.req);
  401540:	2101      	movs	r1, #1
  401542:	f995 400c 	ldrsb.w	r4, [r5, #12]
  401546:	4798      	blx	r3
		if (err) {
  401548:	786b      	ldrb	r3, [r5, #1]
  40154a:	b170      	cbz	r0, 40156a <_usb_d_cb_trans_done+0x62>
			_usb_d_dev_ep_stall(req_dir ? ept->xfer.hdr.ep : (ept->xfer.hdr.ep | USB_EP_DIR), USB_EP_STALL_SET);
  40154c:	2c00      	cmp	r4, #0
			ept->xfer.hdr.state  = USB_EP_S_HALTED;
  40154e:	f240 2205 	movw	r2, #517	; 0x205
			_usb_d_dev_ep_stall(req_dir ? ept->xfer.hdr.ep : (ept->xfer.hdr.ep | USB_EP_DIR), USB_EP_STALL_SET);
  401552:	f04f 0101 	mov.w	r1, #1
  401556:	bfb4      	ite	lt
  401558:	4618      	movlt	r0, r3
  40155a:	f043 0080 	orrge.w	r0, r3, #128	; 0x80
			ept->xfer.hdr.state  = USB_EP_S_HALTED;
  40155e:	806a      	strh	r2, [r5, #2]
			_usb_d_dev_ep_stall(req_dir ? ept->xfer.hdr.ep : (ept->xfer.hdr.ep | USB_EP_DIR), USB_EP_STALL_SET);
  401560:	4b25      	ldr	r3, [pc, #148]	; (4015f8 <_usb_d_cb_trans_done+0xf0>)
  401562:	4798      	blx	r3
		ept->xfer.hdr.state  = USB_EP_S_ERROR;
		ept->xfer.hdr.status = USB_XFER_ERROR;
	}

	ept->callbacks.xfer(ep, (enum usb_xfer_code)ept->xfer.hdr.status, (void *)transferred);
}
  401564:	b005      	add	sp, #20
  401566:	e8bd 83f0 	ldmia.w	sp!, {r4, r5, r6, r7, r8, r9, pc}
	struct usb_d_transfer trans
  40156a:	2c00      	cmp	r4, #0
			ept->xfer.hdr.state = USB_EP_S_X_STATUS;
  40156c:	f04f 0204 	mov.w	r2, #4
	struct usb_d_transfer trans
  401570:	bfac      	ite	ge
  401572:	f043 0380 	orrge.w	r3, r3, #128	; 0x80
  401576:	f003 030f 	andlt.w	r3, r3, #15
			ept->xfer.hdr.state = USB_EP_S_X_STATUS;
  40157a:	70aa      	strb	r2, [r5, #2]
	struct usb_d_transfer trans
  40157c:	f88d 300c 	strb.w	r3, [sp, #12]
  401580:	2301      	movs	r3, #1
  401582:	e9cd 0001 	strd	r0, r0, [sp, #4]
  401586:	f88d 300d 	strb.w	r3, [sp, #13]
	return _usb_d_dev_ep_trans(&trans);
  40158a:	a801      	add	r0, sp, #4
  40158c:	4b1b      	ldr	r3, [pc, #108]	; (4015fc <_usb_d_cb_trans_done+0xf4>)
  40158e:	4798      	blx	r3
  401590:	e7e8      	b.n	401564 <_usb_d_cb_trans_done+0x5c>
		ept->callbacks.xfer(ept->xfer.hdr.ep, USB_XFER_DONE, ept->xfer.req);
  401592:	4798      	blx	r3
		ept->xfer.hdr.state = USB_EP_S_X_SETUP;
  401594:	2302      	movs	r3, #2
  401596:	70ab      	strb	r3, [r5, #2]
  401598:	e7e4      	b.n	401564 <_usb_d_cb_trans_done+0x5c>
		ept->xfer.hdr.state = USB_EP_S_IDLE;
  40159a:	2301      	movs	r3, #1
  40159c:	70ab      	strb	r3, [r5, #2]
	ept->callbacks.xfer(ep, (enum usb_xfer_code)ept->xfer.hdr.status, (void *)transferred);
  40159e:	4434      	add	r4, r6
  4015a0:	464a      	mov	r2, r9
  4015a2:	4640      	mov	r0, r8
  4015a4:	69e3      	ldr	r3, [r4, #28]
  4015a6:	78e1      	ldrb	r1, [r4, #3]
  4015a8:	4798      	blx	r3
  4015aa:	e7db      	b.n	401564 <_usb_d_cb_trans_done+0x5c>
	} else if (code == USB_TRANS_STALL) {
  4015ac:	2f01      	cmp	r7, #1
		ept->xfer.hdr.status = USB_XFER_HALT;
  4015ae:	eb04 0306 	add.w	r3, r4, r6
	} else if (code == USB_TRANS_STALL) {
  4015b2:	d10b      	bne.n	4015cc <_usb_d_cb_trans_done+0xc4>
		ept->xfer.hdr.status = USB_XFER_HALT;
  4015b4:	2202      	movs	r2, #2
		if (ept->xfer.hdr.type == USB_EP_XTYPE_CTRL) {
  4015b6:	5da1      	ldrb	r1, [r4, r6]
		ept->xfer.hdr.status = USB_XFER_HALT;
  4015b8:	70da      	strb	r2, [r3, #3]
		if (ept->xfer.hdr.type == USB_EP_XTYPE_CTRL) {
  4015ba:	b921      	cbnz	r1, 4015c6 <_usb_d_cb_trans_done+0xbe>
			ept->xfer.hdr.state = USB_EP_S_X_SETUP;
  4015bc:	709a      	strb	r2, [r3, #2]
			_usb_d_dev_ep_stall(ep, USB_EP_STALL_CLR);
  4015be:	4640      	mov	r0, r8
  4015c0:	4b0d      	ldr	r3, [pc, #52]	; (4015f8 <_usb_d_cb_trans_done+0xf0>)
  4015c2:	4798      	blx	r3
  4015c4:	e7eb      	b.n	40159e <_usb_d_cb_trans_done+0x96>
			ept->xfer.hdr.state = USB_EP_S_HALTED;
  4015c6:	2205      	movs	r2, #5
		ept->xfer.hdr.state = USB_EP_S_IDLE;
  4015c8:	709a      	strb	r2, [r3, #2]
  4015ca:	e7e8      	b.n	40159e <_usb_d_cb_trans_done+0x96>
	} else if (code == USB_TRANS_ABORT) {
  4015cc:	2f02      	cmp	r7, #2
  4015ce:	d107      	bne.n	4015e0 <_usb_d_cb_trans_done+0xd8>
		ept->xfer.hdr.status = USB_XFER_ABORT;
  4015d0:	2204      	movs	r2, #4
  4015d2:	70da      	strb	r2, [r3, #3]
		if (ept->xfer.hdr.type == USB_EP_XTYPE_CTRL) {
  4015d4:	5da2      	ldrb	r2, [r4, r6]
  4015d6:	b90a      	cbnz	r2, 4015dc <_usb_d_cb_trans_done+0xd4>
			ept->xfer.hdr.state = USB_EP_S_X_SETUP;
  4015d8:	709f      	strb	r7, [r3, #2]
			return;
  4015da:	e7c3      	b.n	401564 <_usb_d_cb_trans_done+0x5c>
		ept->xfer.hdr.state = USB_EP_S_IDLE;
  4015dc:	2201      	movs	r2, #1
  4015de:	e7f3      	b.n	4015c8 <_usb_d_cb_trans_done+0xc0>
	} else if (code == USB_TRANS_RESET) {
  4015e0:	2f03      	cmp	r7, #3
		ept->xfer.hdr.state  = USB_EP_S_DISABLED;
  4015e2:	bf0c      	ite	eq
  4015e4:	f44f 62a0 	moveq.w	r2, #1280	; 0x500
		ept->xfer.hdr.state  = USB_EP_S_ERROR;
  4015e8:	f240 6206 	movwne	r2, #1542	; 0x606
  4015ec:	805a      	strh	r2, [r3, #2]
  4015ee:	e7d6      	b.n	40159e <_usb_d_cb_trans_done+0x96>
  4015f0:	004014a1 	.word	0x004014a1
  4015f4:	20400450 	.word	0x20400450
  4015f8:	00400e75 	.word	0x00400e75
  4015fc:	00400fe9 	.word	0x00400fe9

00401600 <usb_d_cb_trans_setup>:
{
  401600:	e92d 47f0 	stmdb	sp!, {r4, r5, r6, r7, r8, r9, sl, lr}
	int8_t           ep_index = _usb_d_find_ep(ep);
  401604:	4b18      	ldr	r3, [pc, #96]	; (401668 <usb_d_cb_trans_setup+0x68>)
{
  401606:	4604      	mov	r4, r0
	uint8_t *        req      = ept->xfer.req;
  401608:	f04f 0820 	mov.w	r8, #32
	int8_t           ep_index = _usb_d_find_ep(ep);
  40160c:	4798      	blx	r3
	uint8_t *        req      = ept->xfer.req;
  40160e:	230c      	movs	r3, #12
  401610:	4f16      	ldr	r7, [pc, #88]	; (40166c <usb_d_cb_trans_setup+0x6c>)
	int8_t           ep_index = _usb_d_find_ep(ep);
  401612:	4606      	mov	r6, r0
	uint8_t *        req      = ept->xfer.req;
  401614:	f044 0980 	orr.w	r9, r4, #128	; 0x80
  401618:	fb18 3800 	smlabb	r8, r8, r0, r3
	uint8_t n = _usb_d_dev_ep_read_req(ep, req);
  40161c:	4620      	mov	r0, r4
  40161e:	4b14      	ldr	r3, [pc, #80]	; (401670 <usb_d_cb_trans_setup+0x70>)
	uint8_t *        req      = ept->xfer.req;
  401620:	44b8      	add	r8, r7
	uint8_t n = _usb_d_dev_ep_read_req(ep, req);
  401622:	4d14      	ldr	r5, [pc, #80]	; (401674 <usb_d_cb_trans_setup+0x74>)
  401624:	4641      	mov	r1, r8
  401626:	4798      	blx	r3
	if (n != 8) {
  401628:	b2c0      	uxtb	r0, r0
  40162a:	2808      	cmp	r0, #8
  40162c:	d008      	beq.n	401640 <usb_d_cb_trans_setup+0x40>
		_usb_d_dev_ep_stall(ep, USB_EP_STALL_SET);
  40162e:	2101      	movs	r1, #1
  401630:	4620      	mov	r0, r4
  401632:	47a8      	blx	r5
		_usb_d_dev_ep_stall(ep | USB_EP_DIR, USB_EP_STALL_SET);
  401634:	4648      	mov	r0, r9
  401636:	462b      	mov	r3, r5
  401638:	2101      	movs	r1, #1
}
  40163a:	e8bd 47f0 	ldmia.w	sp!, {r4, r5, r6, r7, r8, r9, sl, lr}
		_usb_d_dev_ep_stall(ep | USB_EP_DIR, USB_EP_STALL_SET);
  40163e:	4718      	bx	r3
	ept->xfer.hdr.state = USB_EP_S_IDLE;
  401640:	eb07 1646 	add.w	r6, r7, r6, lsl #5
	_usb_d_dev_ep_stall(ep, USB_EP_STALL_CLR);
  401644:	2100      	movs	r1, #0
  401646:	4620      	mov	r0, r4
	ept->xfer.hdr.state = USB_EP_S_IDLE;
  401648:	2701      	movs	r7, #1
	_usb_d_dev_ep_stall(ep, USB_EP_STALL_CLR);
  40164a:	47a8      	blx	r5
	_usb_d_dev_ep_stall(ep | USB_EP_DIR, USB_EP_STALL_CLR);
  40164c:	2100      	movs	r1, #0
  40164e:	4648      	mov	r0, r9
  401650:	47a8      	blx	r5
	if (!ept->callbacks.req(ep, req)) {
  401652:	6973      	ldr	r3, [r6, #20]
  401654:	4641      	mov	r1, r8
  401656:	4620      	mov	r0, r4
	ept->xfer.hdr.state = USB_EP_S_IDLE;
  401658:	70b7      	strb	r7, [r6, #2]
	if (!ept->callbacks.req(ep, req)) {
  40165a:	4798      	blx	r3
  40165c:	b910      	cbnz	r0, 401664 <usb_d_cb_trans_setup+0x64>
		ept->xfer.hdr.state = USB_EP_S_HALTED;
  40165e:	2305      	movs	r3, #5
  401660:	70b3      	strb	r3, [r6, #2]
		_usb_d_dev_ep_stall(ep, USB_EP_STALL_SET);
  401662:	e7e4      	b.n	40162e <usb_d_cb_trans_setup+0x2e>
}
  401664:	e8bd 87f0 	ldmia.w	sp!, {r4, r5, r6, r7, r8, r9, sl, pc}
  401668:	004014a1 	.word	0x004014a1
  40166c:	20400450 	.word	0x20400450
  401670:	00400f89 	.word	0x00400f89
  401674:	00400e75 	.word	0x00400e75

00401678 <usb_d_init>:

int32_t usb_d_init(void)
{
	int32_t rc = _usb_d_dev_init();
  401678:	4b11      	ldr	r3, [pc, #68]	; (4016c0 <usb_d_init+0x48>)
{
  40167a:	b510      	push	{r4, lr}
	int32_t rc = _usb_d_dev_init();
  40167c:	4798      	blx	r3
	uint8_t i;
	if (rc < 0) {
  40167e:	2800      	cmp	r0, #0
  401680:	db1c      	blt.n	4016bc <usb_d_init+0x44>
		return rc;
	}
	memset(usb_d_inst.ep, 0x00, sizeof(struct usb_d_ep) * CONF_USB_D_NUM_EP_SP);
  401682:	2280      	movs	r2, #128	; 0x80
  401684:	2100      	movs	r1, #0
  401686:	4b0f      	ldr	r3, [pc, #60]	; (4016c4 <usb_d_init+0x4c>)
  401688:	480f      	ldr	r0, [pc, #60]	; (4016c8 <usb_d_init+0x50>)
  40168a:	4798      	blx	r3
	for (i = 0; i < CONF_USB_D_NUM_EP_SP; i++) {
  40168c:	4b0e      	ldr	r3, [pc, #56]	; (4016c8 <usb_d_init+0x50>)
	memset(usb_d_inst.ep, 0x00, sizeof(struct usb_d_ep) * CONF_USB_D_NUM_EP_SP);
  40168e:	2200      	movs	r2, #0
		usb_d_inst.ep[i].xfer.hdr.ep    = 0xFF;
  401690:	20ff      	movs	r0, #255	; 0xff
		usb_d_inst.ep[i].callbacks.req  = (usb_d_ep_cb_setup_t)usb_d_dummy_cb_false;
  401692:	490e      	ldr	r1, [pc, #56]	; (4016cc <usb_d_init+0x54>)
		usb_d_inst.ep[i].xfer.hdr.ep    = 0xFF;
  401694:	3201      	adds	r2, #1
  401696:	7058      	strb	r0, [r3, #1]
		usb_d_inst.ep[i].callbacks.more = (usb_d_ep_cb_more_t)usb_d_dummy_cb_false;
		usb_d_inst.ep[i].callbacks.xfer = (usb_d_ep_cb_xfer_t)usb_d_dummy_cb_false;
  401698:	61d9      	str	r1, [r3, #28]
	for (i = 0; i < CONF_USB_D_NUM_EP_SP; i++) {
  40169a:	2a04      	cmp	r2, #4
		usb_d_inst.ep[i].callbacks.more = (usb_d_ep_cb_more_t)usb_d_dummy_cb_false;
  40169c:	e9c3 1105 	strd	r1, r1, [r3, #20]
	for (i = 0; i < CONF_USB_D_NUM_EP_SP; i++) {
  4016a0:	f103 0320 	add.w	r3, r3, #32
  4016a4:	d1f6      	bne.n	401694 <usb_d_init+0x1c>
	}
	/* Handles device driver endpoint callbacks to build transfer. */
	_usb_d_dev_register_ep_callback(USB_D_DEV_EP_CB_SETUP, (FUNC_PTR)usb_d_cb_trans_setup);
  4016a6:	4c0a      	ldr	r4, [pc, #40]	; (4016d0 <usb_d_init+0x58>)
  4016a8:	2000      	movs	r0, #0
  4016aa:	490a      	ldr	r1, [pc, #40]	; (4016d4 <usb_d_init+0x5c>)
  4016ac:	47a0      	blx	r4
	_usb_d_dev_register_ep_callback(USB_D_DEV_EP_CB_MORE, (FUNC_PTR)usb_d_cb_trans_more);
  4016ae:	490a      	ldr	r1, [pc, #40]	; (4016d8 <usb_d_init+0x60>)
  4016b0:	2001      	movs	r0, #1
  4016b2:	47a0      	blx	r4
	_usb_d_dev_register_ep_callback(USB_D_DEV_EP_CB_DONE, (FUNC_PTR)_usb_d_cb_trans_done);
  4016b4:	2002      	movs	r0, #2
  4016b6:	4909      	ldr	r1, [pc, #36]	; (4016dc <usb_d_init+0x64>)
  4016b8:	47a0      	blx	r4
	return ERR_NONE;
  4016ba:	2000      	movs	r0, #0
}
  4016bc:	bd10      	pop	{r4, pc}
  4016be:	bf00      	nop
  4016c0:	00400a9d 	.word	0x00400a9d
  4016c4:	00402119 	.word	0x00402119
  4016c8:	20400450 	.word	0x20400450
  4016cc:	004014d1 	.word	0x004014d1
  4016d0:	0040114d 	.word	0x0040114d
  4016d4:	00401601 	.word	0x00401601
  4016d8:	004014d5 	.word	0x004014d5
  4016dc:	00401509 	.word	0x00401509

004016e0 <usb_d_register_callback>:
}

void usb_d_register_callback(const enum usb_d_cb_type type, const FUNC_PTR func)
{
	/* Directly uses device driver callback. */
	_usb_d_dev_register_callback(type, func);
  4016e0:	4b00      	ldr	r3, [pc, #0]	; (4016e4 <usb_d_register_callback+0x4>)
  4016e2:	4718      	bx	r3
  4016e4:	00401129 	.word	0x00401129

004016e8 <usb_d_enable>:
}

int32_t usb_d_enable(void)
{
	return _usb_d_dev_enable();
  4016e8:	4b00      	ldr	r3, [pc, #0]	; (4016ec <usb_d_enable+0x4>)
  4016ea:	4718      	bx	r3
  4016ec:	00400aed 	.word	0x00400aed

004016f0 <usb_d_attach>:
	_usb_d_dev_disable();
}

void usb_d_attach(void)
{
	_usb_d_dev_attach();
  4016f0:	4b00      	ldr	r3, [pc, #0]	; (4016f4 <usb_d_attach+0x4>)
  4016f2:	4718      	bx	r3
  4016f4:	00400b2d 	.word	0x00400b2d

004016f8 <usb_d_get_speed>:
	_usb_d_dev_detach();
}

enum usb_speed usb_d_get_speed(void)
{
	return _usb_d_dev_get_speed();
  4016f8:	4b00      	ldr	r3, [pc, #0]	; (4016fc <usb_d_get_speed+0x4>)
  4016fa:	4718      	bx	r3
  4016fc:	00400b3d 	.word	0x00400b3d

00401700 <usb_d_set_address>:
	return _usb_d_dev_get_uframe_n();
}

void usb_d_set_address(const uint8_t addr)
{
	_usb_d_dev_set_address(addr);
  401700:	4b00      	ldr	r3, [pc, #0]	; (401704 <usb_d_set_address+0x4>)
  401702:	4718      	bx	r3
  401704:	00400b69 	.word	0x00400b69

00401708 <usb_d_ep_init>:
{
	return usb_d_ep_init(0, USB_EP_XTYPE_CTRL, max_pkt_size);
}

int32_t usb_d_ep_init(const uint8_t ep, const uint8_t attr, const uint16_t max_pkt_size)
{
  401708:	b5f8      	push	{r3, r4, r5, r6, r7, lr}
	int32_t          rc;
	int8_t           ep_index = _usb_d_find_ep(ep);
  40170a:	4c11      	ldr	r4, [pc, #68]	; (401750 <usb_d_ep_init+0x48>)
{
  40170c:	4606      	mov	r6, r0
  40170e:	460d      	mov	r5, r1
  401710:	4617      	mov	r7, r2
	int8_t           ep_index = _usb_d_find_ep(ep);
  401712:	47a0      	blx	r4
	struct usb_d_ep *ept      = &usb_d_inst.ep[ep_index];
	if (ep_index >= 0) {
  401714:	2800      	cmp	r0, #0
  401716:	da14      	bge.n	401742 <usb_d_ep_init+0x3a>
		return -USB_ERR_REDO;
	} else {
		ep_index = _usb_d_find_ep(0xFF);
  401718:	20ff      	movs	r0, #255	; 0xff
  40171a:	47a0      	blx	r4
		if (ep_index < 0) {
  40171c:	1e04      	subs	r4, r0, #0
  40171e:	db13      	blt.n	401748 <usb_d_ep_init+0x40>
			return -USB_ERR_ALLOC_FAIL;
		}
		ept = &usb_d_inst.ep[ep_index];
	}
	rc = _usb_d_dev_ep_init(ep, attr, max_pkt_size);
  401720:	463a      	mov	r2, r7
  401722:	4629      	mov	r1, r5
  401724:	4630      	mov	r0, r6
  401726:	4b0b      	ldr	r3, [pc, #44]	; (401754 <usb_d_ep_init+0x4c>)
  401728:	4798      	blx	r3
	if (rc < 0) {
  40172a:	2800      	cmp	r0, #0
  40172c:	db08      	blt.n	401740 <usb_d_ep_init+0x38>
		return rc;
	}
	ept->xfer.hdr.ep   = ep;
  40172e:	4b0a      	ldr	r3, [pc, #40]	; (401758 <usb_d_ep_init+0x50>)
  401730:	0162      	lsls	r2, r4, #5
	ept->xfer.hdr.type = attr & USB_EP_XTYPE_MASK;
  401732:	f005 0503 	and.w	r5, r5, #3
	return ERR_NONE;
  401736:	2000      	movs	r0, #0
	ept->xfer.hdr.ep   = ep;
  401738:	eb03 1444 	add.w	r4, r3, r4, lsl #5
	ept->xfer.hdr.type = attr & USB_EP_XTYPE_MASK;
  40173c:	549d      	strb	r5, [r3, r2]
	ept->xfer.hdr.ep   = ep;
  40173e:	7066      	strb	r6, [r4, #1]
}
  401740:	bdf8      	pop	{r3, r4, r5, r6, r7, pc}
		return -USB_ERR_REDO;
  401742:	f06f 0013 	mvn.w	r0, #19
  401746:	e7fb      	b.n	401740 <usb_d_ep_init+0x38>
			return -USB_ERR_ALLOC_FAIL;
  401748:	f06f 0014 	mvn.w	r0, #20
  40174c:	e7f8      	b.n	401740 <usb_d_ep_init+0x38>
  40174e:	bf00      	nop
  401750:	004014a1 	.word	0x004014a1
  401754:	00400b89 	.word	0x00400b89
  401758:	20400450 	.word	0x20400450

0040175c <usb_d_ep0_init>:
	return usb_d_ep_init(0, USB_EP_XTYPE_CTRL, max_pkt_size);
  40175c:	2100      	movs	r1, #0
{
  40175e:	4602      	mov	r2, r0
	return usb_d_ep_init(0, USB_EP_XTYPE_CTRL, max_pkt_size);
  401760:	4b01      	ldr	r3, [pc, #4]	; (401768 <usb_d_ep0_init+0xc>)
  401762:	4608      	mov	r0, r1
  401764:	4718      	bx	r3
  401766:	bf00      	nop
  401768:	00401709 	.word	0x00401709

0040176c <usb_d_ep_deinit>:

void usb_d_ep_deinit(const uint8_t ep)
{
  40176c:	b538      	push	{r3, r4, r5, lr}
	int8_t           ep_index = _usb_d_find_ep(ep);
  40176e:	4b07      	ldr	r3, [pc, #28]	; (40178c <usb_d_ep_deinit+0x20>)
{
  401770:	4605      	mov	r5, r0
	int8_t           ep_index = _usb_d_find_ep(ep);
  401772:	4798      	blx	r3
	struct usb_d_ep *ept      = &usb_d_inst.ep[ep_index];
	if (ep_index < 0) {
  401774:	1e04      	subs	r4, r0, #0
  401776:	db07      	blt.n	401788 <usb_d_ep_deinit+0x1c>
		return;
	}
	_usb_d_dev_ep_deinit(ep);
  401778:	4628      	mov	r0, r5
  40177a:	4b05      	ldr	r3, [pc, #20]	; (401790 <usb_d_ep_deinit+0x24>)
  40177c:	4798      	blx	r3
	ept->xfer.hdr.ep = 0xFF;
  40177e:	4805      	ldr	r0, [pc, #20]	; (401794 <usb_d_ep_deinit+0x28>)
  401780:	23ff      	movs	r3, #255	; 0xff
  401782:	eb00 1044 	add.w	r0, r0, r4, lsl #5
  401786:	7043      	strb	r3, [r0, #1]
}
  401788:	bd38      	pop	{r3, r4, r5, pc}
  40178a:	bf00      	nop
  40178c:	004014a1 	.word	0x004014a1
  401790:	00400cad 	.word	0x00400cad
  401794:	20400450 	.word	0x20400450

00401798 <usb_d_ep_enable>:

int32_t usb_d_ep_enable(const uint8_t ep)
{
  401798:	b538      	push	{r3, r4, r5, lr}
	int8_t           ep_index = _usb_d_find_ep(ep);
  40179a:	4b0c      	ldr	r3, [pc, #48]	; (4017cc <usb_d_ep_enable+0x34>)
{
  40179c:	4605      	mov	r5, r0
	int8_t           ep_index = _usb_d_find_ep(ep);
  40179e:	4798      	blx	r3
	struct usb_d_ep *ept      = &usb_d_inst.ep[ep_index];
	int32_t          rc;
	if (ep_index < 0) {
  4017a0:	1e03      	subs	r3, r0, #0
  4017a2:	db10      	blt.n	4017c6 <usb_d_ep_enable+0x2e>
		return -USB_ERR_PARAM;
	}
	ept->xfer.hdr.state = (ept->xfer.hdr.type == USB_EP_XTYPE_CTRL) ? USB_EP_S_X_SETUP : USB_EP_S_IDLE;
  4017a4:	015b      	lsls	r3, r3, #5
  4017a6:	4c0a      	ldr	r4, [pc, #40]	; (4017d0 <usb_d_ep_enable+0x38>)
	rc                  = _usb_d_dev_ep_enable(ep);
  4017a8:	4628      	mov	r0, r5
	ept->xfer.hdr.state = (ept->xfer.hdr.type == USB_EP_XTYPE_CTRL) ? USB_EP_S_X_SETUP : USB_EP_S_IDLE;
  4017aa:	5ce2      	ldrb	r2, [r4, r3]
  4017ac:	441c      	add	r4, r3
	rc                  = _usb_d_dev_ep_enable(ep);
  4017ae:	4b09      	ldr	r3, [pc, #36]	; (4017d4 <usb_d_ep_enable+0x3c>)
	ept->xfer.hdr.state = (ept->xfer.hdr.type == USB_EP_XTYPE_CTRL) ? USB_EP_S_X_SETUP : USB_EP_S_IDLE;
  4017b0:	2a00      	cmp	r2, #0
  4017b2:	bf0c      	ite	eq
  4017b4:	2202      	moveq	r2, #2
  4017b6:	2201      	movne	r2, #1
  4017b8:	70a2      	strb	r2, [r4, #2]
	rc                  = _usb_d_dev_ep_enable(ep);
  4017ba:	4798      	blx	r3
	if (rc < 0) {
  4017bc:	2800      	cmp	r0, #0
  4017be:	da01      	bge.n	4017c4 <usb_d_ep_enable+0x2c>
		ept->xfer.hdr.state = USB_EP_S_DISABLED;
  4017c0:	2300      	movs	r3, #0
  4017c2:	70a3      	strb	r3, [r4, #2]
	}
	return rc;
}
  4017c4:	bd38      	pop	{r3, r4, r5, pc}
		return -USB_ERR_PARAM;
  4017c6:	f06f 0011 	mvn.w	r0, #17
  4017ca:	e7fb      	b.n	4017c4 <usb_d_ep_enable+0x2c>
  4017cc:	004014a1 	.word	0x004014a1
  4017d0:	20400450 	.word	0x20400450
  4017d4:	00400cf9 	.word	0x00400cf9

004017d8 <usb_d_ep_transfer>:
	}
	return usb_d_inst.ep[ep_index].xfer.req;
}

int32_t usb_d_ep_transfer(const struct usb_d_transfer *xfer)
{
  4017d8:	e92d 4ff0 	stmdb	sp!, {r4, r5, r6, r7, r8, r9, sl, fp, lr}
	int8_t                ep_index = _usb_d_find_ep(xfer->ep);
  4017dc:	f890 8008 	ldrb.w	r8, [r0, #8]
{
  4017e0:	4605      	mov	r5, r0
  4017e2:	b087      	sub	sp, #28
	int8_t                ep_index = _usb_d_find_ep(xfer->ep);
  4017e4:	4b30      	ldr	r3, [pc, #192]	; (4018a8 <usb_d_ep_transfer+0xd0>)
  4017e6:	4640      	mov	r0, r8
  4017e8:	4798      	blx	r3
	uint32_t              len = xfer->size;
	int32_t               rc;
	volatile uint8_t      state;
	volatile hal_atomic_t flags;

	if (ep_index < 0) {
  4017ea:	1e04      	subs	r4, r0, #0
	bool                  dir = USB_EP_GET_DIR(xfer->ep), zlp = xfer->zlp;
  4017ec:	7a6f      	ldrb	r7, [r5, #9]
	uint32_t              len = xfer->size;
  4017ee:	686e      	ldr	r6, [r5, #4]
	if (ep_index < 0) {
  4017f0:	db55      	blt.n	40189e <usb_d_ep_transfer+0xc6>
		return -USB_ERR_PARAM;
	}

	atomic_enter_critical(&flags);
	state = ept->xfer.hdr.state;
  4017f2:	f8df a0c8 	ldr.w	sl, [pc, #200]	; 4018bc <usb_d_ep_transfer+0xe4>
  4017f6:	ea4f 1b44 	mov.w	fp, r4, lsl #5
	atomic_enter_critical(&flags);
  4017fa:	4b2c      	ldr	r3, [pc, #176]	; (4018ac <usb_d_ep_transfer+0xd4>)
  4017fc:	a802      	add	r0, sp, #8
	state = ept->xfer.hdr.state;
  4017fe:	eb0a 1444 	add.w	r4, sl, r4, lsl #5
	atomic_enter_critical(&flags);
  401802:	4798      	blx	r3
	state = ept->xfer.hdr.state;
  401804:	78a3      	ldrb	r3, [r4, #2]
  401806:	f88d 3007 	strb.w	r3, [sp, #7]
	if (state == USB_EP_S_IDLE) {
  40180a:	f89d 3007 	ldrb.w	r3, [sp, #7]
  40180e:	2b01      	cmp	r3, #1
  401810:	fa5f f983 	uxtb.w	r9, r3
  401814:	4b26      	ldr	r3, [pc, #152]	; (4018b0 <usb_d_ep_transfer+0xd8>)
  401816:	d11a      	bne.n	40184e <usb_d_ep_transfer+0x76>
		ept->xfer.hdr.state = USB_EP_S_X_DATA;
  401818:	2203      	movs	r2, #3
		atomic_leave_critical(&flags);
  40181a:	a802      	add	r0, sp, #8
		ept->xfer.hdr.state = USB_EP_S_X_DATA;
  40181c:	70a2      	strb	r2, [r4, #2]
		atomic_leave_critical(&flags);
  40181e:	4798      	blx	r3
		default: /* USB_EP_S_X_xxxx  */
			return USB_BUSY;
		}
	}

	if (ept->xfer.hdr.type == USB_EP_XTYPE_CTRL) {
  401820:	f81a 300b 	ldrb.w	r3, [sl, fp]
  401824:	b1fb      	cbz	r3, 401866 <usb_d_ep_transfer+0x8e>
	bool                  dir = USB_EP_GET_DIR(xfer->ep), zlp = xfer->zlp;
  401826:	1e3b      	subs	r3, r7, #0
  401828:	ea4f 12d8 	mov.w	r2, r8, lsr #7
  40182c:	bf18      	it	ne
  40182e:	2301      	movne	r3, #1
	struct usb_d_transfer trans
  401830:	6828      	ldr	r0, [r5, #0]
				zlp = false;
			}
		}
	}

	rc = _usb_d_trans(xfer->ep, dir, xfer->buf, len, zlp);
  401832:	7a29      	ldrb	r1, [r5, #8]
	struct usb_d_transfer trans
  401834:	e9cd 0603 	strd	r0, r6, [sp, #12]
  401838:	b372      	cbz	r2, 401898 <usb_d_ep_transfer+0xc0>
  40183a:	f041 0280 	orr.w	r2, r1, #128	; 0x80
  40183e:	f88d 3015 	strb.w	r3, [sp, #21]
	return _usb_d_dev_ep_trans(&trans);
  401842:	a803      	add	r0, sp, #12
  401844:	4b1b      	ldr	r3, [pc, #108]	; (4018b4 <usb_d_ep_transfer+0xdc>)
	struct usb_d_transfer trans
  401846:	f88d 2014 	strb.w	r2, [sp, #20]
	return _usb_d_dev_ep_trans(&trans);
  40184a:	4798      	blx	r3
	return rc;
  40184c:	e008      	b.n	401860 <usb_d_ep_transfer+0x88>
		atomic_leave_critical(&flags);
  40184e:	a802      	add	r0, sp, #8
  401850:	4798      	blx	r3
		switch (state) {
  401852:	f89d 3007 	ldrb.w	r3, [sp, #7]
  401856:	2b06      	cmp	r3, #6
  401858:	b2da      	uxtb	r2, r3
  40185a:	d823      	bhi.n	4018a4 <usb_d_ep_transfer+0xcc>
  40185c:	4b16      	ldr	r3, [pc, #88]	; (4018b8 <usb_d_ep_transfer+0xe0>)
  40185e:	5698      	ldrsb	r0, [r3, r2]
}
  401860:	b007      	add	sp, #28
  401862:	e8bd 8ff0 	ldmia.w	sp!, {r4, r5, r6, r7, r8, r9, sl, fp, pc}
		uint16_t req_len = USB_GET_wLength(ept->xfer.req);
  401866:	7ce1      	ldrb	r1, [r4, #19]
  401868:	7ca2      	ldrb	r2, [r4, #18]
  40186a:	eb02 2201 	add.w	r2, r2, r1, lsl #8
  40186e:	b292      	uxth	r2, r2
		if (req_len == 0) {
  401870:	b92a      	cbnz	r2, 40187e <usb_d_ep_transfer+0xa6>
			ept->xfer.hdr.state = USB_EP_S_X_STATUS;
  401872:	2304      	movs	r3, #4
			len                 = 0;
  401874:	4616      	mov	r6, r2
			ept->xfer.hdr.state = USB_EP_S_X_STATUS;
  401876:	70a3      	strb	r3, [r4, #2]
			zlp                 = true;
  401878:	464b      	mov	r3, r9
			dir = (USB_GET_bmRequestType(ept->xfer.req) & USB_REQ_TYPE_IN);
  40187a:	461a      	mov	r2, r3
  40187c:	e7d8      	b.n	401830 <usb_d_ep_transfer+0x58>
			if (len > req_len) {
  40187e:	4296      	cmp	r6, r2
			if (dir) {
  401880:	f994 100c 	ldrsb.w	r1, [r4, #12]
  401884:	bf28      	it	cs
  401886:	4616      	movcs	r6, r2
  401888:	2900      	cmp	r1, #0
  40188a:	daf6      	bge.n	40187a <usb_d_ep_transfer+0xa2>
				zlp = (req_len > len);
  40188c:	42b2      	cmp	r2, r6
			dir = (USB_GET_bmRequestType(ept->xfer.req) & USB_REQ_TYPE_IN);
  40188e:	464a      	mov	r2, r9
				zlp = (req_len > len);
  401890:	bf94      	ite	ls
  401892:	2300      	movls	r3, #0
  401894:	2301      	movhi	r3, #1
  401896:	e7cb      	b.n	401830 <usb_d_ep_transfer+0x58>
	struct usb_d_transfer trans
  401898:	f001 020f 	and.w	r2, r1, #15
  40189c:	e7cf      	b.n	40183e <usb_d_ep_transfer+0x66>
		return -USB_ERR_PARAM;
  40189e:	f06f 0011 	mvn.w	r0, #17
  4018a2:	e7dd      	b.n	401860 <usb_d_ep_transfer+0x88>
		switch (state) {
  4018a4:	2001      	movs	r0, #1
  4018a6:	e7db      	b.n	401860 <usb_d_ep_transfer+0x88>
  4018a8:	004014a1 	.word	0x004014a1
  4018ac:	00402099 	.word	0x00402099
  4018b0:	004020a7 	.word	0x004020a7
  4018b4:	00400fe9 	.word	0x00400fe9
  4018b8:	0040215f 	.word	0x0040215f
  4018bc:	20400450 	.word	0x20400450

004018c0 <usb_d_ep_halt>:
	}
	return ERR_NONE;
}

int32_t usb_d_ep_halt(const uint8_t ep, const enum usb_ep_halt_ctrl ctrl)
{
  4018c0:	e92d 41f0 	stmdb	sp!, {r4, r5, r6, r7, r8, lr}
  4018c4:	4605      	mov	r5, r0
	if (ctrl == USB_EP_HALT_CLR) {
  4018c6:	460c      	mov	r4, r1
  4018c8:	b9d9      	cbnz	r1, 401902 <usb_d_ep_halt+0x42>
	int8_t           ep_index = _usb_d_find_ep(ep);
  4018ca:	4b13      	ldr	r3, [pc, #76]	; (401918 <usb_d_ep_halt+0x58>)
  4018cc:	4798      	blx	r3
	if (ep_index < 0) {
  4018ce:	1e06      	subs	r6, r0, #0
  4018d0:	db1e      	blt.n	401910 <usb_d_ep_halt+0x50>
	if (_usb_d_dev_ep_stall(ep, USB_EP_STALL_GET)) {
  4018d2:	2102      	movs	r1, #2
  4018d4:	4628      	mov	r0, r5
  4018d6:	4f11      	ldr	r7, [pc, #68]	; (40191c <usb_d_ep_halt+0x5c>)
  4018d8:	47b8      	blx	r7
  4018da:	b180      	cbz	r0, 4018fe <usb_d_ep_halt+0x3e>
		rc = _usb_d_dev_ep_stall(ep, USB_EP_STALL_CLR);
  4018dc:	4621      	mov	r1, r4
  4018de:	4628      	mov	r0, r5
  4018e0:	47b8      	blx	r7
		if (rc < 0) {
  4018e2:	2800      	cmp	r0, #0
  4018e4:	db0b      	blt.n	4018fe <usb_d_ep_halt+0x3e>
		ept->xfer.hdr.state  = USB_EP_S_IDLE;
  4018e6:	480e      	ldr	r0, [pc, #56]	; (401920 <usb_d_ep_halt+0x60>)
  4018e8:	f240 3301 	movw	r3, #769	; 0x301
		ept->callbacks.xfer(ep, USB_XFER_UNHALT, NULL);
  4018ec:	4622      	mov	r2, r4
  4018ee:	2103      	movs	r1, #3
		ept->xfer.hdr.state  = USB_EP_S_IDLE;
  4018f0:	eb00 1046 	add.w	r0, r0, r6, lsl #5
  4018f4:	8043      	strh	r3, [r0, #2]
		ept->callbacks.xfer(ep, USB_XFER_UNHALT, NULL);
  4018f6:	69c3      	ldr	r3, [r0, #28]
  4018f8:	4628      	mov	r0, r5
  4018fa:	4798      	blx	r3
	return ERR_NONE;
  4018fc:	4620      	mov	r0, r4
	} else if (ctrl == USB_EP_HALT_SET) {
		return _usb_d_dev_ep_stall(ep, USB_EP_STALL_SET);
	} else {
		return _usb_d_dev_ep_stall(ep, USB_EP_STALL_GET);
	}
}
  4018fe:	e8bd 81f0 	ldmia.w	sp!, {r4, r5, r6, r7, r8, pc}
	} else if (ctrl == USB_EP_HALT_SET) {
  401902:	2901      	cmp	r1, #1
  401904:	4b05      	ldr	r3, [pc, #20]	; (40191c <usb_d_ep_halt+0x5c>)
		return _usb_d_dev_ep_stall(ep, USB_EP_STALL_GET);
  401906:	bf18      	it	ne
  401908:	2102      	movne	r1, #2
}
  40190a:	e8bd 41f0 	ldmia.w	sp!, {r4, r5, r6, r7, r8, lr}
		return _usb_d_dev_ep_stall(ep, USB_EP_STALL_GET);
  40190e:	4718      	bx	r3
		return -USB_ERR_PARAM;
  401910:	f06f 0011 	mvn.w	r0, #17
  401914:	e7f3      	b.n	4018fe <usb_d_ep_halt+0x3e>
  401916:	bf00      	nop
  401918:	004014a1 	.word	0x004014a1
  40191c:	00400e75 	.word	0x00400e75
  401920:	20400450 	.word	0x20400450

00401924 <usb_d_ep_register_callback>:

void usb_d_ep_register_callback(const uint8_t ep, const enum usb_d_ep_cb_type type, const FUNC_PTR func)
{
  401924:	b538      	push	{r3, r4, r5, lr}
	int8_t           ep_index = _usb_d_find_ep(ep);
  401926:	4b0f      	ldr	r3, [pc, #60]	; (401964 <usb_d_ep_register_callback+0x40>)
{
  401928:	4614      	mov	r4, r2
  40192a:	460d      	mov	r5, r1
	int8_t           ep_index = _usb_d_find_ep(ep);
  40192c:	4798      	blx	r3
	struct usb_d_ep *ept      = &usb_d_inst.ep[ep_index];
	FUNC_PTR         f        = func ? (FUNC_PTR)func : (FUNC_PTR)usb_d_dummy_cb_false;
  40192e:	4b0e      	ldr	r3, [pc, #56]	; (401968 <usb_d_ep_register_callback+0x44>)
  401930:	2c00      	cmp	r4, #0
  401932:	bf08      	it	eq
  401934:	461c      	moveq	r4, r3
	if (ep_index < 0) {
  401936:	2800      	cmp	r0, #0
  401938:	db08      	blt.n	40194c <usb_d_ep_register_callback+0x28>
		return;
	}
	switch (type) {
  40193a:	2d01      	cmp	r5, #1
  40193c:	d007      	beq.n	40194e <usb_d_ep_register_callback+0x2a>
  40193e:	2d02      	cmp	r5, #2
  401940:	d00a      	beq.n	401958 <usb_d_ep_register_callback+0x34>
  401942:	b91d      	cbnz	r5, 40194c <usb_d_ep_register_callback+0x28>
	case USB_D_EP_CB_SETUP:
		ept->callbacks.req = (usb_d_ep_cb_setup_t)f;
  401944:	4b09      	ldr	r3, [pc, #36]	; (40196c <usb_d_ep_register_callback+0x48>)
  401946:	eb03 1040 	add.w	r0, r3, r0, lsl #5
  40194a:	6144      	str	r4, [r0, #20]
		ept->callbacks.xfer = (usb_d_ep_cb_xfer_t)f;
		break;
	default:
		break;
	}
}
  40194c:	bd38      	pop	{r3, r4, r5, pc}
		ept->callbacks.more = (usb_d_ep_cb_more_t)f;
  40194e:	4b07      	ldr	r3, [pc, #28]	; (40196c <usb_d_ep_register_callback+0x48>)
  401950:	eb03 1040 	add.w	r0, r3, r0, lsl #5
  401954:	6184      	str	r4, [r0, #24]
		break;
  401956:	e7f9      	b.n	40194c <usb_d_ep_register_callback+0x28>
		ept->callbacks.xfer = (usb_d_ep_cb_xfer_t)f;
  401958:	4b04      	ldr	r3, [pc, #16]	; (40196c <usb_d_ep_register_callback+0x48>)
  40195a:	eb03 1040 	add.w	r0, r3, r0, lsl #5
  40195e:	61c4      	str	r4, [r0, #28]
		break;
  401960:	e7f4      	b.n	40194c <usb_d_ep_register_callback+0x28>
  401962:	bf00      	nop
  401964:	004014a1 	.word	0x004014a1
  401968:	004014d1 	.word	0x004014d1
  40196c:	20400450 	.word	0x20400450

00401970 <main>:
#include <atmel_start.h>

int main(void)
{
  401970:	b508      	push	{r3, lr}
	/* Initializes MCU, drivers and middleware */
	atmel_start_init();
  401972:	4b02      	ldr	r3, [pc, #8]	; (40197c <main+0xc>)
  401974:	4798      	blx	r3

	cdcd_acm_example();
  401976:	4b02      	ldr	r3, [pc, #8]	; (401980 <main+0x10>)
  401978:	4798      	blx	r3

	/* Replace with your application code */
	while (1) {
  40197a:	e7fe      	b.n	40197a <main+0xa>
  40197c:	004001a9 	.word	0x004001a9
  401980:	004012c1 	.word	0x004012c1

00401984 <usbdc_unconfig>:
/**
 * \brief Unconfig, close all interfaces
 */
static void usbdc_unconfig(void)
{
	struct usbdf_driver *func = (struct usbdf_driver *)usbdc.func_list.head;
  401984:	4b05      	ldr	r3, [pc, #20]	; (40199c <usbdc_unconfig+0x18>)
{
  401986:	b510      	push	{r4, lr}
	struct usbdf_driver *func = (struct usbdf_driver *)usbdc.func_list.head;
  401988:	695c      	ldr	r4, [r3, #20]
	while (NULL != func) {
  40198a:	b904      	cbnz	r4, 40198e <usbdc_unconfig+0xa>
		func->ctrl(func, USBDF_DISABLE, NULL);
		func = func->next;
	}
}
  40198c:	bd10      	pop	{r4, pc}
		func->ctrl(func, USBDF_DISABLE, NULL);
  40198e:	6863      	ldr	r3, [r4, #4]
  401990:	4620      	mov	r0, r4
  401992:	2200      	movs	r2, #0
  401994:	2101      	movs	r1, #1
  401996:	4798      	blx	r3
		func = func->next;
  401998:	6824      	ldr	r4, [r4, #0]
  40199a:	e7f6      	b.n	40198a <usbdc_unconfig+0x6>
  40199c:	204004d0 	.word	0x204004d0

004019a0 <usbdc_change_notify>:
}

/** Invoke all registered Change notification callbacks. */
static void usbdc_change_notify(enum usbdc_change_type change, uint32_t value)
{
	struct usbdc_change_handler *cg = (struct usbdc_change_handler *)usbdc.handlers.change_list.head;
  4019a0:	4b06      	ldr	r3, [pc, #24]	; (4019bc <usbdc_change_notify+0x1c>)
{
  4019a2:	b570      	push	{r4, r5, r6, lr}
  4019a4:	4605      	mov	r5, r0
  4019a6:	460e      	mov	r6, r1
	struct usbdc_change_handler *cg = (struct usbdc_change_handler *)usbdc.handlers.change_list.head;
  4019a8:	691c      	ldr	r4, [r3, #16]

	while (cg != NULL) {
  4019aa:	b904      	cbnz	r4, 4019ae <usbdc_change_notify+0xe>
		if (NULL != cg->cb) {
			cg->cb(change, value);
		}
		cg = cg->next;
	}
}
  4019ac:	bd70      	pop	{r4, r5, r6, pc}
		if (NULL != cg->cb) {
  4019ae:	6863      	ldr	r3, [r4, #4]
  4019b0:	b113      	cbz	r3, 4019b8 <usbdc_change_notify+0x18>
			cg->cb(change, value);
  4019b2:	4631      	mov	r1, r6
  4019b4:	4628      	mov	r0, r5
  4019b6:	4798      	blx	r3
		cg = cg->next;
  4019b8:	6824      	ldr	r4, [r4, #0]
  4019ba:	e7f6      	b.n	4019aa <usbdc_change_notify+0xa>
  4019bc:	204004d0 	.word	0x204004d0

004019c0 <usbdc_request_handler>:

/** Invoke all registered request callbacks until request handled. */
static int32_t usbdc_request_handler(uint8_t ep, struct usb_req *req, enum usb_ctrl_stage stage)
{
  4019c0:	b5f8      	push	{r3, r4, r5, r6, r7, lr}
	struct usbdc_req_handler *h = (struct usbdc_req_handler *)usbdc.handlers.req_list.head;
  4019c2:	4b0c      	ldr	r3, [pc, #48]	; (4019f4 <usbdc_request_handler+0x34>)
{
  4019c4:	4605      	mov	r5, r0
  4019c6:	460e      	mov	r6, r1
  4019c8:	4617      	mov	r7, r2
	struct usbdc_req_handler *h = (struct usbdc_req_handler *)usbdc.handlers.req_list.head;
  4019ca:	68dc      	ldr	r4, [r3, #12]
	int32_t                   rc;

	while (h != NULL) {
  4019cc:	b90c      	cbnz	r4, 4019d2 <usbdc_request_handler+0x12>
				return -1;
			}
		}
		h = h->next;
	}
	return false;
  4019ce:	4620      	mov	r0, r4
}
  4019d0:	bdf8      	pop	{r3, r4, r5, r6, r7, pc}
		if (NULL != h->cb) {
  4019d2:	6863      	ldr	r3, [r4, #4]
  4019d4:	b90b      	cbnz	r3, 4019da <usbdc_request_handler+0x1a>
		h = h->next;
  4019d6:	6824      	ldr	r4, [r4, #0]
  4019d8:	e7f8      	b.n	4019cc <usbdc_request_handler+0xc>
			rc = h->cb(ep, req, stage);
  4019da:	463a      	mov	r2, r7
  4019dc:	4631      	mov	r1, r6
  4019de:	4628      	mov	r0, r5
  4019e0:	4798      	blx	r3
			if (0 == rc) {
  4019e2:	b120      	cbz	r0, 4019ee <usbdc_request_handler+0x2e>
			} else if (ERR_NOT_FOUND != rc) {
  4019e4:	300a      	adds	r0, #10
  4019e6:	d0f6      	beq.n	4019d6 <usbdc_request_handler+0x16>
				return -1;
  4019e8:	f04f 30ff 	mov.w	r0, #4294967295	; 0xffffffff
  4019ec:	e7f0      	b.n	4019d0 <usbdc_request_handler+0x10>
				return true;
  4019ee:	2001      	movs	r0, #1
  4019f0:	e7ee      	b.n	4019d0 <usbdc_request_handler+0x10>
  4019f2:	bf00      	nop
  4019f4:	204004d0 	.word	0x204004d0

004019f8 <usbd_sof_cb>:
	struct usbdc_sof_handler *sof = (struct usbdc_sof_handler *)usbdc.handlers.sof_list.head;
  4019f8:	4b04      	ldr	r3, [pc, #16]	; (401a0c <usbd_sof_cb+0x14>)

/**
 * \brief Callback invoked on USB device SOF
 */
static void usbd_sof_cb(void)
{
  4019fa:	b510      	push	{r4, lr}
	struct usbdc_sof_handler *sof = (struct usbdc_sof_handler *)usbdc.handlers.sof_list.head;
  4019fc:	689c      	ldr	r4, [r3, #8]
	while (sof != NULL) {
  4019fe:	b904      	cbnz	r4, 401a02 <usbd_sof_cb+0xa>
	usbdc_sof_notify();
}
  401a00:	bd10      	pop	{r4, pc}
		if (NULL != sof->cb) {
  401a02:	6863      	ldr	r3, [r4, #4]
  401a04:	b103      	cbz	r3, 401a08 <usbd_sof_cb+0x10>
			sof->cb();
  401a06:	4798      	blx	r3
		sof = sof->next;
  401a08:	6824      	ldr	r4, [r4, #0]
  401a0a:	e7f8      	b.n	4019fe <usbd_sof_cb+0x6>
  401a0c:	204004d0 	.word	0x204004d0

00401a10 <usbdc_cb_ctl_done>:
 * \return Data has error or not.
 * \retval true There is data error, protocol error.
 * \retval false There is no data error.
 */
static bool usbdc_cb_ctl_done(const uint8_t ep, const enum usb_xfer_code code, struct usb_req *req)
{
  401a10:	b510      	push	{r4, lr}
  401a12:	4614      	mov	r4, r2
	(void)ep;

	switch (code) {
  401a14:	460a      	mov	r2, r1
  401a16:	b119      	cbz	r1, 401a20 <usbdc_cb_ctl_done+0x10>
  401a18:	2901      	cmp	r1, #1
  401a1a:	d020      	beq.n	401a5e <usbdc_cb_ctl_done+0x4e>
		return usbdc_ctrl_data_end(req);
	default:
		break;
	}
	return false;
}
  401a1c:	2000      	movs	r0, #0
  401a1e:	bd10      	pop	{r4, pc}
	if (req->bmRequestType != USB_REQT_TYPE_STANDARD) {
  401a20:	7823      	ldrb	r3, [r4, #0]
  401a22:	2b00      	cmp	r3, #0
  401a24:	d1fa      	bne.n	401a1c <usbdc_cb_ctl_done+0xc>
	switch (req->bRequest) {
  401a26:	7863      	ldrb	r3, [r4, #1]
  401a28:	2b05      	cmp	r3, #5
  401a2a:	d00d      	beq.n	401a48 <usbdc_cb_ctl_done+0x38>
  401a2c:	2b09      	cmp	r3, #9
  401a2e:	d1f5      	bne.n	401a1c <usbdc_cb_ctl_done+0xc>
		usbdc.cfg_value = req->wValue;
  401a30:	8862      	ldrh	r2, [r4, #2]
  401a32:	4b0d      	ldr	r3, [pc, #52]	; (401a68 <usbdc_cb_ctl_done+0x58>)
		usbdc.state     = req->wValue ? USBD_S_CONFIG : USBD_S_ADDRESS;
  401a34:	2a00      	cmp	r2, #0
		usbdc.cfg_value = req->wValue;
  401a36:	77da      	strb	r2, [r3, #31]
		usbdc.state     = req->wValue ? USBD_S_CONFIG : USBD_S_ADDRESS;
  401a38:	bf14      	ite	ne
  401a3a:	2104      	movne	r1, #4
  401a3c:	2103      	moveq	r1, #3
		usbdc.state = req->wValue ? USBD_S_ADDRESS : USBD_S_DEFAULT;
  401a3e:	7799      	strb	r1, [r3, #30]
		usbdc_change_notify(USBDC_C_STATE, usbdc.state);
  401a40:	2001      	movs	r0, #1
  401a42:	4b0a      	ldr	r3, [pc, #40]	; (401a6c <usbdc_cb_ctl_done+0x5c>)
  401a44:	4798      	blx	r3
		break;
  401a46:	e7e9      	b.n	401a1c <usbdc_cb_ctl_done+0xc>
		usbdc_set_address(req->wValue);
  401a48:	8860      	ldrh	r0, [r4, #2]
	usb_d_set_address(addr);
  401a4a:	4b09      	ldr	r3, [pc, #36]	; (401a70 <usbdc_cb_ctl_done+0x60>)
  401a4c:	b2c0      	uxtb	r0, r0
  401a4e:	4798      	blx	r3
		usbdc.state = req->wValue ? USBD_S_ADDRESS : USBD_S_DEFAULT;
  401a50:	8863      	ldrh	r3, [r4, #2]
  401a52:	2b00      	cmp	r3, #0
  401a54:	4b04      	ldr	r3, [pc, #16]	; (401a68 <usbdc_cb_ctl_done+0x58>)
  401a56:	bf14      	ite	ne
  401a58:	2103      	movne	r1, #3
  401a5a:	2102      	moveq	r1, #2
  401a5c:	e7ef      	b.n	401a3e <usbdc_cb_ctl_done+0x2e>
	usbdc_request_handler(0, req, USB_DATA_STAGE);
  401a5e:	4621      	mov	r1, r4
  401a60:	4b04      	ldr	r3, [pc, #16]	; (401a74 <usbdc_cb_ctl_done+0x64>)
  401a62:	2000      	movs	r0, #0
  401a64:	4798      	blx	r3
		return usbdc_ctrl_data_end(req);
  401a66:	e7d9      	b.n	401a1c <usbdc_cb_ctl_done+0xc>
  401a68:	204004d0 	.word	0x204004d0
  401a6c:	004019a1 	.word	0x004019a1
  401a70:	00401701 	.word	0x00401701
  401a74:	004019c1 	.word	0x004019c1

00401a78 <usbdc_reset>:

/**
 * \brief USB Device Core Reset
 */
void usbdc_reset(void)
{
  401a78:	b570      	push	{r4, r5, r6, lr}
	usbdc_unconfig();

	usbdc.state       = USBD_S_DEFAULT;
	usbdc.cfg_value   = 0;
	usbdc.ifc_alt_map = 0;
  401a7a:	2400      	movs	r4, #0
	usbdc.state       = USBD_S_DEFAULT;
  401a7c:	4d0d      	ldr	r5, [pc, #52]	; (401ab4 <usbdc_reset+0x3c>)
  401a7e:	2602      	movs	r6, #2
	usbdc_unconfig();
  401a80:	4b0d      	ldr	r3, [pc, #52]	; (401ab8 <usbdc_reset+0x40>)
  401a82:	4798      	blx	r3

	// Setup EP0
	usb_d_ep_deinit(0);
  401a84:	4620      	mov	r0, r4
	usbdc.state       = USBD_S_DEFAULT;
  401a86:	83ee      	strh	r6, [r5, #30]
	usb_d_ep_deinit(0);
  401a88:	4b0c      	ldr	r3, [pc, #48]	; (401abc <usbdc_reset+0x44>)
	usbdc.ifc_alt_map = 0;
  401a8a:	f885 4021 	strb.w	r4, [r5, #33]	; 0x21
	usb_d_ep_deinit(0);
  401a8e:	4798      	blx	r3
	usb_d_ep0_init(usbdc.ctrl_size);
  401a90:	4b0b      	ldr	r3, [pc, #44]	; (401ac0 <usbdc_reset+0x48>)
  401a92:	f895 0020 	ldrb.w	r0, [r5, #32]
  401a96:	4798      	blx	r3
	usb_d_ep_register_callback(0, USB_D_EP_CB_SETUP, (FUNC_PTR)usbdc_cb_ctl_req);
  401a98:	4d0a      	ldr	r5, [pc, #40]	; (401ac4 <usbdc_reset+0x4c>)
  401a9a:	4621      	mov	r1, r4
  401a9c:	4620      	mov	r0, r4
  401a9e:	4a0a      	ldr	r2, [pc, #40]	; (401ac8 <usbdc_reset+0x50>)
  401aa0:	47a8      	blx	r5
	usb_d_ep_register_callback(0, USB_D_EP_CB_XFER, (FUNC_PTR)usbdc_cb_ctl_done);
  401aa2:	4620      	mov	r0, r4
  401aa4:	4631      	mov	r1, r6
  401aa6:	4a09      	ldr	r2, [pc, #36]	; (401acc <usbdc_reset+0x54>)
  401aa8:	47a8      	blx	r5
	usb_d_ep_enable(0);
  401aaa:	4620      	mov	r0, r4
  401aac:	4b08      	ldr	r3, [pc, #32]	; (401ad0 <usbdc_reset+0x58>)
}
  401aae:	e8bd 4070 	ldmia.w	sp!, {r4, r5, r6, lr}
	usb_d_ep_enable(0);
  401ab2:	4718      	bx	r3
  401ab4:	204004d0 	.word	0x204004d0
  401ab8:	00401985 	.word	0x00401985
  401abc:	0040176d 	.word	0x0040176d
  401ac0:	0040175d 	.word	0x0040175d
  401ac4:	00401925 	.word	0x00401925
  401ac8:	00401b0d 	.word	0x00401b0d
  401acc:	00401a11 	.word	0x00401a11
  401ad0:	00401799 	.word	0x00401799

00401ad4 <usbd_event_cb>:
 */
static void usbd_event_cb(const enum usb_event ev, const uint32_t param)
{
	(void)param;

	switch (ev) {
  401ad4:	b110      	cbz	r0, 401adc <usbd_event_cb+0x8>
  401ad6:	2801      	cmp	r0, #1
  401ad8:	d002      	beq.n	401ae0 <usbd_event_cb+0xc>
  401ada:	4770      	bx	lr
	case USB_EV_VBUS:
		usbdc_change_notify(USBDC_C_CONN, param);
  401adc:	4b01      	ldr	r3, [pc, #4]	; (401ae4 <usbd_event_cb+0x10>)
  401ade:	4718      	bx	r3
		break;

	case USB_EV_RESET:
		usbdc_reset();
  401ae0:	4b01      	ldr	r3, [pc, #4]	; (401ae8 <usbd_event_cb+0x14>)
  401ae2:	4718      	bx	r3
  401ae4:	004019a1 	.word	0x004019a1
  401ae8:	00401a79 	.word	0x00401a79

00401aec <usbdc_xfer>:

/**
 * \brief Issue USB device transfer
 */
int32_t usbdc_xfer(uint8_t ep, uint8_t *buf, uint32_t size, bool zlp)
{
  401aec:	b51f      	push	{r0, r1, r2, r3, r4, lr}
	struct usb_d_transfer xfer = {(uint8_t *)buf, size, ep, zlp};
  401aee:	f88d 300d 	strb.w	r3, [sp, #13]
	return usb_d_ep_transfer(&xfer);
  401af2:	4b05      	ldr	r3, [pc, #20]	; (401b08 <usbdc_xfer+0x1c>)
	struct usb_d_transfer xfer = {(uint8_t *)buf, size, ep, zlp};
  401af4:	f88d 000c 	strb.w	r0, [sp, #12]
	return usb_d_ep_transfer(&xfer);
  401af8:	a801      	add	r0, sp, #4
	struct usb_d_transfer xfer = {(uint8_t *)buf, size, ep, zlp};
  401afa:	e9cd 1201 	strd	r1, r2, [sp, #4]
	return usb_d_ep_transfer(&xfer);
  401afe:	4798      	blx	r3
}
  401b00:	b005      	add	sp, #20
  401b02:	f85d fb04 	ldr.w	pc, [sp], #4
  401b06:	bf00      	nop
  401b08:	004017d9 	.word	0x004017d9

00401b0c <usbdc_cb_ctl_req>:
{
  401b0c:	e92d 41ff 	stmdb	sp!, {r0, r1, r2, r3, r4, r5, r6, r7, r8, lr}
	switch (usbdc_request_handler(ep, req, USB_SETUP_STAGE)) {
  401b10:	4ba7      	ldr	r3, [pc, #668]	; (401db0 <usbdc_cb_ctl_req+0x2a4>)
  401b12:	2200      	movs	r2, #0
{
  401b14:	4605      	mov	r5, r0
  401b16:	460c      	mov	r4, r1
	switch (usbdc_request_handler(ep, req, USB_SETUP_STAGE)) {
  401b18:	4798      	blx	r3
  401b1a:	1c43      	adds	r3, r0, #1
  401b1c:	d008      	beq.n	401b30 <usbdc_cb_ctl_req+0x24>
  401b1e:	2801      	cmp	r0, #1
  401b20:	d042      	beq.n	401ba8 <usbdc_cb_ctl_req+0x9c>
	switch (req->bmRequestType & (USB_REQT_TYPE_MASK | USB_REQT_DIR_IN)) {
  401b22:	7823      	ldrb	r3, [r4, #0]
  401b24:	f013 02e0 	ands.w	r2, r3, #224	; 0xe0
  401b28:	d004      	beq.n	401b34 <usbdc_cb_ctl_req+0x28>
  401b2a:	2a80      	cmp	r2, #128	; 0x80
  401b2c:	f000 80ec 	beq.w	401d08 <usbdc_cb_ctl_req+0x1fc>
	switch (req->bmRequestType & USB_REQT_RECIP_MASK) {
  401b30:	2000      	movs	r0, #0
  401b32:	e039      	b.n	401ba8 <usbdc_cb_ctl_req+0x9c>
	switch (req->bRequest) {
  401b34:	7862      	ldrb	r2, [r4, #1]
  401b36:	3a01      	subs	r2, #1
  401b38:	2a0a      	cmp	r2, #10
  401b3a:	d8f9      	bhi.n	401b30 <usbdc_cb_ctl_req+0x24>
  401b3c:	a101      	add	r1, pc, #4	; (adr r1, 401b44 <usbdc_cb_ctl_req+0x38>)
  401b3e:	f851 f022 	ldr.w	pc, [r1, r2, lsl #2]
  401b42:	bf00      	nop
  401b44:	00401c17 	.word	0x00401c17
  401b48:	00401b31 	.word	0x00401b31
  401b4c:	00401c37 	.word	0x00401c37
  401b50:	00401b31 	.word	0x00401b31
  401b54:	00401b7b 	.word	0x00401b7b
  401b58:	00401b31 	.word	0x00401b31
  401b5c:	00401b31 	.word	0x00401b31
  401b60:	00401b31 	.word	0x00401b31
  401b64:	00401b71 	.word	0x00401b71
  401b68:	00401b31 	.word	0x00401b31
  401b6c:	00401c55 	.word	0x00401c55
		if (!usbdc_set_config(req->wValue)) {
  401b70:	8862      	ldrh	r2, [r4, #2]
  401b72:	b2d2      	uxtb	r2, r2
	if (cfg_value == 0) {
  401b74:	b95a      	cbnz	r2, 401b8e <usbdc_cb_ctl_req+0x82>
		usbdc_unconfig();
  401b76:	4b8f      	ldr	r3, [pc, #572]	; (401db4 <usbdc_cb_ctl_req+0x2a8>)
  401b78:	4798      	blx	r3
		return (ERR_NONE == usbdc_xfer(ep, NULL, 0, true));
  401b7a:	2200      	movs	r2, #0
  401b7c:	2301      	movs	r3, #1
  401b7e:	4611      	mov	r1, r2
	if (ERR_NONE != usbdc_xfer(ep, str_desc, length, need_zlp)) {
  401b80:	4628      	mov	r0, r5
  401b82:	4c8d      	ldr	r4, [pc, #564]	; (401db8 <usbdc_cb_ctl_req+0x2ac>)
  401b84:	47a0      	blx	r4
  401b86:	fab0 f080 	clz	r0, r0
  401b8a:	0940      	lsrs	r0, r0, #5
  401b8c:	e00c      	b.n	401ba8 <usbdc_cb_ctl_req+0x9c>
	if (usb_d_get_speed() == USB_SPEED_HS && usbdc.desces.hs) {
  401b8e:	4b8b      	ldr	r3, [pc, #556]	; (401dbc <usbdc_cb_ctl_req+0x2b0>)
  401b90:	9201      	str	r2, [sp, #4]
  401b92:	4798      	blx	r3
  401b94:	2802      	cmp	r0, #2
  401b96:	4c8a      	ldr	r4, [pc, #552]	; (401dc0 <usbdc_cb_ctl_req+0x2b4>)
  401b98:	4e8a      	ldr	r6, [pc, #552]	; (401dc4 <usbdc_cb_ctl_req+0x2b8>)
  401b9a:	9a01      	ldr	r2, [sp, #4]
  401b9c:	d007      	beq.n	401bae <usbdc_cb_ctl_req+0xa2>
		cfg_desc = usb_find_cfg_desc(usbdc.desces.ls_fs->sod, usbdc.desces.ls_fs->eod, cfg_value);
  401b9e:	6823      	ldr	r3, [r4, #0]
  401ba0:	e9d3 0100 	ldrd	r0, r1, [r3]
  401ba4:	47b0      	blx	r6
	if (NULL == cfg_desc) {
  401ba6:	b960      	cbnz	r0, 401bc2 <usbdc_cb_ctl_req+0xb6>
}
  401ba8:	b004      	add	sp, #16
  401baa:	e8bd 81f0 	ldmia.w	sp!, {r4, r5, r6, r7, r8, pc}
	if (usb_d_get_speed() == USB_SPEED_HS && usbdc.desces.hs) {
  401bae:	6863      	ldr	r3, [r4, #4]
  401bb0:	2b00      	cmp	r3, #0
  401bb2:	d0f4      	beq.n	401b9e <usbdc_cb_ctl_req+0x92>
		cfg_desc = usb_find_cfg_desc(usbdc.desces.hs->sod, usbdc.desces.hs->eod, cfg_value);
  401bb4:	9201      	str	r2, [sp, #4]
  401bb6:	e9d3 0100 	ldrd	r0, r1, [r3]
  401bba:	47b0      	blx	r6
	if (!cfg_desc) {
  401bbc:	9a01      	ldr	r2, [sp, #4]
  401bbe:	2800      	cmp	r0, #0
  401bc0:	d0ed      	beq.n	401b9e <usbdc_cb_ctl_req+0x92>
	return (ptr[0] + (ptr[1] << 8));
  401bc2:	78c3      	ldrb	r3, [r0, #3]
	desc.sod  = usb_find_desc(cfg_desc, desc.eod, USB_DT_INTERFACE);
  401bc4:	2204      	movs	r2, #4
  401bc6:	7881      	ldrb	r1, [r0, #2]
  401bc8:	4f7f      	ldr	r7, [pc, #508]	; (401dc8 <usbdc_cb_ctl_req+0x2bc>)
  401bca:	eb01 2103 	add.w	r1, r1, r3, lsl #8
	desc.eod  = cfg_desc + total_len;
  401bce:	fa10 f181 	uxtah	r1, r0, r1
  401bd2:	9103      	str	r1, [sp, #12]
	desc.sod  = usb_find_desc(cfg_desc, desc.eod, USB_DT_INTERFACE);
  401bd4:	47b8      	blx	r7
	uint8_t                 last_iface = 0xFF;
  401bd6:	23ff      	movs	r3, #255	; 0xff
	desc.sod  = usb_find_desc(cfg_desc, desc.eod, USB_DT_INTERFACE);
  401bd8:	9002      	str	r0, [sp, #8]
	while (NULL != desc.sod) {
  401bda:	9a02      	ldr	r2, [sp, #8]
  401bdc:	2a00      	cmp	r2, #0
  401bde:	d0cc      	beq.n	401b7a <usbdc_cb_ctl_req+0x6e>
		if (last_iface != desc.sod[2] /* bInterfaceNumber */) {
  401be0:	f892 8002 	ldrb.w	r8, [r2, #2]
  401be4:	4598      	cmp	r8, r3
  401be6:	d014      	beq.n	401c12 <usbdc_cb_ctl_req+0x106>
			func       = (struct usbdf_driver *)usbdc.func_list.head;
  401be8:	6966      	ldr	r6, [r4, #20]
			while (NULL != func) {
  401bea:	b94e      	cbnz	r6, 401c00 <usbdc_cb_ctl_req+0xf4>
		desc.sod = usb_desc_next(desc.sod);
  401bec:	9802      	ldr	r0, [sp, #8]
		desc.sod = usb_find_desc(desc.sod, desc.eod, USB_DT_INTERFACE);
  401bee:	2204      	movs	r2, #4
  401bf0:	9903      	ldr	r1, [sp, #12]
	return (desc + usb_desc_len(desc));
  401bf2:	7803      	ldrb	r3, [r0, #0]
  401bf4:	4418      	add	r0, r3
		desc.sod = usb_desc_next(desc.sod);
  401bf6:	9002      	str	r0, [sp, #8]
		desc.sod = usb_find_desc(desc.sod, desc.eod, USB_DT_INTERFACE);
  401bf8:	47b8      	blx	r7
  401bfa:	4643      	mov	r3, r8
  401bfc:	9002      	str	r0, [sp, #8]
  401bfe:	e7ec      	b.n	401bda <usbdc_cb_ctl_req+0xce>
				if (func->ctrl(func, USBDF_ENABLE, &desc)) {
  401c00:	6873      	ldr	r3, [r6, #4]
  401c02:	aa02      	add	r2, sp, #8
  401c04:	2100      	movs	r1, #0
  401c06:	4630      	mov	r0, r6
  401c08:	4798      	blx	r3
  401c0a:	2800      	cmp	r0, #0
  401c0c:	d0ee      	beq.n	401bec <usbdc_cb_ctl_req+0xe0>
					func = func->next;
  401c0e:	6836      	ldr	r6, [r6, #0]
  401c10:	e7eb      	b.n	401bea <usbdc_cb_ctl_req+0xde>
  401c12:	4698      	mov	r8, r3
  401c14:	e7ea      	b.n	401bec <usbdc_cb_ctl_req+0xe0>
	switch (req->bmRequestType & USB_REQT_RECIP_MASK) {
  401c16:	2b02      	cmp	r3, #2
  401c18:	d18a      	bne.n	401b30 <usbdc_cb_ctl_req+0x24>
		if (req->wLength != 0) {
  401c1a:	88e2      	ldrh	r2, [r4, #6]
  401c1c:	2a00      	cmp	r2, #0
  401c1e:	d187      	bne.n	401b30 <usbdc_cb_ctl_req+0x24>
		usb_d_ep_halt(req->wIndex & 0xFF, USB_EP_HALT_CLR);
  401c20:	88a0      	ldrh	r0, [r4, #4]
  401c22:	4611      	mov	r1, r2
  401c24:	4b69      	ldr	r3, [pc, #420]	; (401dcc <usbdc_cb_ctl_req+0x2c0>)
  401c26:	b2c0      	uxtb	r0, r0
  401c28:	9201      	str	r2, [sp, #4]
  401c2a:	4798      	blx	r3
		usbdc_xfer(ep, NULL, 0, true);
  401c2c:	2301      	movs	r3, #1
  401c2e:	9a01      	ldr	r2, [sp, #4]
		usbdc_xfer(ep, NULL, 0, true);
  401c30:	4611      	mov	r1, r2
		usbdc_xfer(ep, usbdc.ctrl_buf, 1, false);
  401c32:	4628      	mov	r0, r5
  401c34:	e064      	b.n	401d00 <usbdc_cb_ctl_req+0x1f4>
	switch (req->bmRequestType & USB_REQT_RECIP_MASK) {
  401c36:	2b02      	cmp	r3, #2
  401c38:	f47f af7a 	bne.w	401b30 <usbdc_cb_ctl_req+0x24>
		if (req->wLength != 0) {
  401c3c:	88e6      	ldrh	r6, [r4, #6]
  401c3e:	2e00      	cmp	r6, #0
  401c40:	f47f af76 	bne.w	401b30 <usbdc_cb_ctl_req+0x24>
		usb_d_ep_halt(req->wIndex & 0xFF, USB_EP_HALT_SET);
  401c44:	88a0      	ldrh	r0, [r4, #4]
  401c46:	2101      	movs	r1, #1
  401c48:	4b60      	ldr	r3, [pc, #384]	; (401dcc <usbdc_cb_ctl_req+0x2c0>)
  401c4a:	b2c0      	uxtb	r0, r0
  401c4c:	4798      	blx	r3
		usbdc_xfer(ep, NULL, 0, true);
  401c4e:	2301      	movs	r3, #1
  401c50:	4632      	mov	r2, r6
  401c52:	e7ed      	b.n	401c30 <usbdc_cb_ctl_req+0x124>
	if (usb_d_get_speed() == USB_SPEED_HS && usbdc.desces.hs) {
  401c54:	4b59      	ldr	r3, [pc, #356]	; (401dbc <usbdc_cb_ctl_req+0x2b0>)
		return usbdc_set_interface(req->wValue, req->wIndex);
  401c56:	8865      	ldrh	r5, [r4, #2]
  401c58:	88a6      	ldrh	r6, [r4, #4]
	if (usb_d_get_speed() == USB_SPEED_HS && usbdc.desces.hs) {
  401c5a:	4798      	blx	r3
  401c5c:	2802      	cmp	r0, #2
  401c5e:	4c58      	ldr	r4, [pc, #352]	; (401dc0 <usbdc_cb_ctl_req+0x2b4>)
  401c60:	4f58      	ldr	r7, [pc, #352]	; (401dc4 <usbdc_cb_ctl_req+0x2b8>)
  401c62:	d029      	beq.n	401cb8 <usbdc_cb_ctl_req+0x1ac>
		ifc = usb_find_cfg_desc(usbdc.desces.ls_fs->sod, usbdc.desces.ls_fs->eod, usbdc.cfg_value);
  401c64:	6823      	ldr	r3, [r4, #0]
  401c66:	7fe2      	ldrb	r2, [r4, #31]
  401c68:	e9d3 0100 	ldrd	r0, r1, [r3]
  401c6c:	47b8      	blx	r7
	if (NULL == ifc) {
  401c6e:	2800      	cmp	r0, #0
  401c70:	f43f af5e 	beq.w	401b30 <usbdc_cb_ctl_req+0x24>
	desc.sod = ifc;
  401c74:	9002      	str	r0, [sp, #8]
	if (NULL == (ifc = usb_find_desc(desc.sod, desc.eod, USB_DT_INTERFACE))) {
  401c76:	2204      	movs	r2, #4
	return (ptr[0] + (ptr[1] << 8));
  401c78:	78c3      	ldrb	r3, [r0, #3]
  401c7a:	7881      	ldrb	r1, [r0, #2]
  401c7c:	4f52      	ldr	r7, [pc, #328]	; (401dc8 <usbdc_cb_ctl_req+0x2bc>)
  401c7e:	eb01 2103 	add.w	r1, r1, r3, lsl #8
	desc.eod = ifc + usb_cfg_desc_total_len(ifc);
  401c82:	fa10 f181 	uxtah	r1, r0, r1
  401c86:	9103      	str	r1, [sp, #12]
		ifc      = usb_find_desc(desc.sod, desc.eod, USB_DT_INTERFACE);
  401c88:	47b8      	blx	r7
		if (NULL == ifc) {
  401c8a:	2800      	cmp	r0, #0
  401c8c:	f43f af50 	beq.w	401b30 <usbdc_cb_ctl_req+0x24>
	while (ifc[2] != ifc_id || ifc[3] != alt_set) {
  401c90:	7883      	ldrb	r3, [r0, #2]
  401c92:	42b3      	cmp	r3, r6
  401c94:	d11a      	bne.n	401ccc <usbdc_cb_ctl_req+0x1c0>
  401c96:	78c3      	ldrb	r3, [r0, #3]
  401c98:	42ab      	cmp	r3, r5
  401c9a:	d117      	bne.n	401ccc <usbdc_cb_ctl_req+0x1c0>
	func     = (struct usbdf_driver *)usbdc.func_list.head;
  401c9c:	6967      	ldr	r7, [r4, #20]
	desc.sod = ifc;
  401c9e:	9002      	str	r0, [sp, #8]
	while (NULL != func) {
  401ca0:	2f00      	cmp	r7, #0
  401ca2:	f43f af45 	beq.w	401b30 <usbdc_cb_ctl_req+0x24>
		if (func->ctrl(func, USBDF_DISABLE, &desc)) {
  401ca6:	2101      	movs	r1, #1
  401ca8:	687b      	ldr	r3, [r7, #4]
  401caa:	aa02      	add	r2, sp, #8
  401cac:	4638      	mov	r0, r7
  401cae:	4798      	blx	r3
  401cb0:	4601      	mov	r1, r0
  401cb2:	b190      	cbz	r0, 401cda <usbdc_cb_ctl_req+0x1ce>
			func = func->next;
  401cb4:	683f      	ldr	r7, [r7, #0]
  401cb6:	e7f3      	b.n	401ca0 <usbdc_cb_ctl_req+0x194>
	if (usb_d_get_speed() == USB_SPEED_HS && usbdc.desces.hs) {
  401cb8:	6863      	ldr	r3, [r4, #4]
  401cba:	2b00      	cmp	r3, #0
  401cbc:	d0d2      	beq.n	401c64 <usbdc_cb_ctl_req+0x158>
		ifc = usb_find_cfg_desc(usbdc.desces.hs->sod, usbdc.desces.hs->eod, usbdc.cfg_value);
  401cbe:	7fe2      	ldrb	r2, [r4, #31]
  401cc0:	e9d3 0100 	ldrd	r0, r1, [r3]
  401cc4:	47b8      	blx	r7
	if (!ifc) {
  401cc6:	2800      	cmp	r0, #0
  401cc8:	d1d4      	bne.n	401c74 <usbdc_cb_ctl_req+0x168>
  401cca:	e7cb      	b.n	401c64 <usbdc_cb_ctl_req+0x158>
		desc.sod = usb_desc_next(desc.sod);
  401ccc:	9802      	ldr	r0, [sp, #8]
		ifc      = usb_find_desc(desc.sod, desc.eod, USB_DT_INTERFACE);
  401cce:	2204      	movs	r2, #4
  401cd0:	9903      	ldr	r1, [sp, #12]
	return (desc + usb_desc_len(desc));
  401cd2:	7803      	ldrb	r3, [r0, #0]
  401cd4:	4418      	add	r0, r3
		desc.sod = usb_desc_next(desc.sod);
  401cd6:	9002      	str	r0, [sp, #8]
		ifc      = usb_find_desc(desc.sod, desc.eod, USB_DT_INTERFACE);
  401cd8:	e7d6      	b.n	401c88 <usbdc_cb_ctl_req+0x17c>
		} else if (ERR_NONE == func->ctrl(func, USBDF_ENABLE, &desc)) {
  401cda:	687b      	ldr	r3, [r7, #4]
  401cdc:	aa02      	add	r2, sp, #8
  401cde:	4638      	mov	r0, r7
  401ce0:	4798      	blx	r3
  401ce2:	2800      	cmp	r0, #0
  401ce4:	f47f af24 	bne.w	401b30 <usbdc_cb_ctl_req+0x24>
			if (alt_set) {
  401ce8:	b135      	cbz	r5, 401cf8 <usbdc_cb_ctl_req+0x1ec>
				usbdc.ifc_alt_map |= 1 << ifc_id;
  401cea:	2301      	movs	r3, #1
  401cec:	40b3      	lsls	r3, r6
  401cee:	f894 6021 	ldrb.w	r6, [r4, #33]	; 0x21
  401cf2:	431e      	orrs	r6, r3
  401cf4:	f884 6021 	strb.w	r6, [r4, #33]	; 0x21
			usbdc_xfer(0, NULL, 0, 0);
  401cf8:	2300      	movs	r3, #0
  401cfa:	461a      	mov	r2, r3
  401cfc:	4619      	mov	r1, r3
  401cfe:	4618      	mov	r0, r3
  401d00:	4c2d      	ldr	r4, [pc, #180]	; (401db8 <usbdc_cb_ctl_req+0x2ac>)
  401d02:	47a0      	blx	r4
			return true;
  401d04:	2001      	movs	r0, #1
  401d06:	e74f      	b.n	401ba8 <usbdc_cb_ctl_req+0x9c>
	switch (req->bRequest) {
  401d08:	7862      	ldrb	r2, [r4, #1]
  401d0a:	2a0a      	cmp	r2, #10
  401d0c:	f63f af10 	bhi.w	401b30 <usbdc_cb_ctl_req+0x24>
  401d10:	a101      	add	r1, pc, #4	; (adr r1, 401d18 <usbdc_cb_ctl_req+0x20c>)
  401d12:	f851 f022 	ldr.w	pc, [r1, r2, lsl #2]
  401d16:	bf00      	nop
  401d18:	00401ebb 	.word	0x00401ebb
  401d1c:	00401b31 	.word	0x00401b31
  401d20:	00401b31 	.word	0x00401b31
  401d24:	00401b31 	.word	0x00401b31
  401d28:	00401b31 	.word	0x00401b31
  401d2c:	00401b31 	.word	0x00401b31
  401d30:	00401d45 	.word	0x00401d45
  401d34:	00401b31 	.word	0x00401b31
  401d38:	00401eab 	.word	0x00401eab
  401d3c:	00401b31 	.word	0x00401b31
  401d40:	00401ee9 	.word	0x00401ee9
	uint8_t type = (uint8_t)(req->wValue >> 8);
  401d44:	8866      	ldrh	r6, [r4, #2]
	switch (type) {
  401d46:	0a33      	lsrs	r3, r6, #8
  401d48:	3b01      	subs	r3, #1
  401d4a:	2b06      	cmp	r3, #6
  401d4c:	f63f aef0 	bhi.w	401b30 <usbdc_cb_ctl_req+0x24>
  401d50:	a201      	add	r2, pc, #4	; (adr r2, 401d58 <usbdc_cb_ctl_req+0x24c>)
  401d52:	f852 f023 	ldr.w	pc, [r2, r3, lsl #2]
  401d56:	bf00      	nop
  401d58:	00401d75 	.word	0x00401d75
  401d5c:	00401dd1 	.word	0x00401dd1
  401d60:	00401e75 	.word	0x00401e75
  401d64:	00401b31 	.word	0x00401b31
  401d68:	00401b31 	.word	0x00401b31
  401d6c:	00401e1d 	.word	0x00401e1d
  401d70:	00401e45 	.word	0x00401e45
	if (usb_d_get_speed() == USB_SPEED_HS && usbdc.desces.hs) {
  401d74:	4b11      	ldr	r3, [pc, #68]	; (401dbc <usbdc_cb_ctl_req+0x2b0>)
	uint16_t length   = req->wLength;
  401d76:	88e7      	ldrh	r7, [r4, #6]
	if (usb_d_get_speed() == USB_SPEED_HS && usbdc.desces.hs) {
  401d78:	4798      	blx	r3
  401d7a:	2802      	cmp	r0, #2
  401d7c:	4e10      	ldr	r6, [pc, #64]	; (401dc0 <usbdc_cb_ctl_req+0x2b4>)
  401d7e:	4c12      	ldr	r4, [pc, #72]	; (401dc8 <usbdc_cb_ctl_req+0x2bc>)
  401d80:	d006      	beq.n	401d90 <usbdc_cb_ctl_req+0x284>
		dev_desc = usb_find_desc(usbdc.desces.ls_fs->sod, usbdc.desces.ls_fs->eod, USB_DT_DEVICE);
  401d82:	6833      	ldr	r3, [r6, #0]
  401d84:	2201      	movs	r2, #1
		dev_desc = usb_find_desc(usbdc.desces.ls_fs->sod, usbdc.desces.ls_fs->eod, USB_DT_DEVICE_QUALIFIER);
  401d86:	e9d3 0100 	ldrd	r0, r1, [r3]
  401d8a:	47a0      	blx	r4
	if (!dev_desc) {
  401d8c:	b948      	cbnz	r0, 401da2 <usbdc_cb_ctl_req+0x296>
  401d8e:	e6cf      	b.n	401b30 <usbdc_cb_ctl_req+0x24>
	if (usb_d_get_speed() == USB_SPEED_HS && usbdc.desces.hs) {
  401d90:	6873      	ldr	r3, [r6, #4]
  401d92:	2b00      	cmp	r3, #0
  401d94:	d0f5      	beq.n	401d82 <usbdc_cb_ctl_req+0x276>
		dev_desc = usb_find_desc(usbdc.desces.hs->sod, usbdc.desces.hs->eod, USB_DT_DEVICE);
  401d96:	2201      	movs	r2, #1
  401d98:	e9d3 0100 	ldrd	r0, r1, [r3]
  401d9c:	47a0      	blx	r4
	if (!dev_desc) {
  401d9e:	2800      	cmp	r0, #0
  401da0:	d0ef      	beq.n	401d82 <usbdc_cb_ctl_req+0x276>
	if (ERR_NONE != usbdc_xfer(ep, dev_desc, length, false)) {
  401da2:	2f12      	cmp	r7, #18
  401da4:	463a      	mov	r2, r7
  401da6:	f04f 0300 	mov.w	r3, #0
  401daa:	bf28      	it	cs
  401dac:	2212      	movcs	r2, #18
  401dae:	e033      	b.n	401e18 <usbdc_cb_ctl_req+0x30c>
  401db0:	004019c1 	.word	0x004019c1
  401db4:	00401985 	.word	0x00401985
  401db8:	00401aed 	.word	0x00401aed
  401dbc:	004016f9 	.word	0x004016f9
  401dc0:	204004d0 	.word	0x204004d0
  401dc4:	004013fd 	.word	0x004013fd
  401dc8:	004013c5 	.word	0x004013c5
  401dcc:	004018c1 	.word	0x004018c1
	bool     need_zlp = !(length & (usbdc.ctrl_size - 1));
  401dd0:	f8df 8160 	ldr.w	r8, [pc, #352]	; 401f34 <usbdc_cb_ctl_req+0x428>
	if (usb_d_get_speed() == USB_SPEED_HS && usbdc.desces.hs) {
  401dd4:	4b55      	ldr	r3, [pc, #340]	; (401f2c <usbdc_cb_ctl_req+0x420>)
	uint16_t length   = req->wLength;
  401dd6:	88e4      	ldrh	r4, [r4, #6]
	bool     need_zlp = !(length & (usbdc.ctrl_size - 1));
  401dd8:	f898 7020 	ldrb.w	r7, [r8, #32]
	if (usb_d_get_speed() == USB_SPEED_HS && usbdc.desces.hs) {
  401ddc:	4798      	blx	r3
  401dde:	1c72      	adds	r2, r6, #1
  401de0:	2802      	cmp	r0, #2
  401de2:	4e53      	ldr	r6, [pc, #332]	; (401f30 <usbdc_cb_ctl_req+0x424>)
  401de4:	b2d2      	uxtb	r2, r2
	if (usb_d_get_speed() == USB_SPEED_HS && usbdc.desces.hs) {
  401de6:	d039      	beq.n	401e5c <usbdc_cb_ctl_req+0x350>
		cfg_desc = usb_find_othspdcfg_desc(usbdc.desces.ls_fs->sod, usbdc.desces.ls_fs->eod, index + 1);
  401de8:	f8d8 3000 	ldr.w	r3, [r8]
  401dec:	e9d3 0100 	ldrd	r0, r1, [r3]
  401df0:	47b0      	blx	r6
	if (NULL == cfg_desc) {
  401df2:	2800      	cmp	r0, #0
  401df4:	f43f ae9c 	beq.w	401b30 <usbdc_cb_ctl_req+0x24>
	return (ptr[0] + (ptr[1] << 8));
  401df8:	78c3      	ldrb	r3, [r0, #3]
  401dfa:	7882      	ldrb	r2, [r0, #2]
  401dfc:	eb02 2203 	add.w	r2, r2, r3, lsl #8
  401e00:	b292      	uxth	r2, r2
	if (length <= total_len) {
  401e02:	4294      	cmp	r4, r2
  401e04:	d906      	bls.n	401e14 <usbdc_cb_ctl_req+0x308>
	bool     need_zlp = !(length & (usbdc.ctrl_size - 1));
  401e06:	3f01      	subs	r7, #1
  401e08:	4227      	tst	r7, r4
  401e0a:	4614      	mov	r4, r2
  401e0c:	bf0c      	ite	eq
  401e0e:	2301      	moveq	r3, #1
  401e10:	2300      	movne	r3, #0
  401e12:	e000      	b.n	401e16 <usbdc_cb_ctl_req+0x30a>
		need_zlp = false;
  401e14:	2300      	movs	r3, #0
	if (ERR_NONE != usbdc_xfer(ep, cfg_desc, length, need_zlp)) {
  401e16:	4622      	mov	r2, r4
  401e18:	4601      	mov	r1, r0
  401e1a:	e6b1      	b.n	401b80 <usbdc_cb_ctl_req+0x74>
	if (usb_d_get_speed() == USB_SPEED_HS && usbdc.desces.hs) {
  401e1c:	4b43      	ldr	r3, [pc, #268]	; (401f2c <usbdc_cb_ctl_req+0x420>)
	uint16_t length   = req->wLength;
  401e1e:	88e7      	ldrh	r7, [r4, #6]
	if (usb_d_get_speed() == USB_SPEED_HS && usbdc.desces.hs) {
  401e20:	4798      	blx	r3
  401e22:	2802      	cmp	r0, #2
  401e24:	4e43      	ldr	r6, [pc, #268]	; (401f34 <usbdc_cb_ctl_req+0x428>)
  401e26:	4c44      	ldr	r4, [pc, #272]	; (401f38 <usbdc_cb_ctl_req+0x42c>)
  401e28:	d002      	beq.n	401e30 <usbdc_cb_ctl_req+0x324>
		dev_desc = usb_find_desc(usbdc.desces.ls_fs->sod, usbdc.desces.ls_fs->eod, USB_DT_DEVICE_QUALIFIER);
  401e2a:	6833      	ldr	r3, [r6, #0]
  401e2c:	2206      	movs	r2, #6
  401e2e:	e7aa      	b.n	401d86 <usbdc_cb_ctl_req+0x27a>
	if (usb_d_get_speed() == USB_SPEED_HS && usbdc.desces.hs) {
  401e30:	6873      	ldr	r3, [r6, #4]
  401e32:	2b00      	cmp	r3, #0
  401e34:	d0f9      	beq.n	401e2a <usbdc_cb_ctl_req+0x31e>
		dev_desc = usb_find_desc(usbdc.desces.hs->sod, usbdc.desces.hs->eod, USB_DT_DEVICE_QUALIFIER);
  401e36:	2206      	movs	r2, #6
  401e38:	e9d3 0100 	ldrd	r0, r1, [r3]
  401e3c:	47a0      	blx	r4
	if (!dev_desc) {
  401e3e:	2800      	cmp	r0, #0
  401e40:	d1af      	bne.n	401da2 <usbdc_cb_ctl_req+0x296>
  401e42:	e7f2      	b.n	401e2a <usbdc_cb_ctl_req+0x31e>
	bool     need_zlp = !(length & (usbdc.ctrl_size - 1));
  401e44:	f8df 80ec 	ldr.w	r8, [pc, #236]	; 401f34 <usbdc_cb_ctl_req+0x428>
	if (usb_d_get_speed() == USB_SPEED_HS && usbdc.desces.hs) {
  401e48:	4b38      	ldr	r3, [pc, #224]	; (401f2c <usbdc_cb_ctl_req+0x420>)
	uint16_t length   = req->wLength;
  401e4a:	88e4      	ldrh	r4, [r4, #6]
	bool     need_zlp = !(length & (usbdc.ctrl_size - 1));
  401e4c:	f898 7020 	ldrb.w	r7, [r8, #32]
	if (usb_d_get_speed() == USB_SPEED_HS && usbdc.desces.hs) {
  401e50:	4798      	blx	r3
  401e52:	1c72      	adds	r2, r6, #1
  401e54:	2802      	cmp	r0, #2
  401e56:	4e39      	ldr	r6, [pc, #228]	; (401f3c <usbdc_cb_ctl_req+0x430>)
  401e58:	b2d2      	uxtb	r2, r2
  401e5a:	e7c4      	b.n	401de6 <usbdc_cb_ctl_req+0x2da>
  401e5c:	f8d8 3004 	ldr.w	r3, [r8, #4]
  401e60:	2b00      	cmp	r3, #0
  401e62:	d0c1      	beq.n	401de8 <usbdc_cb_ctl_req+0x2dc>
		cfg_desc = usb_find_othspdcfg_desc(usbdc.desces.hs->sod, usbdc.desces.hs->eod, index + 1);
  401e64:	9201      	str	r2, [sp, #4]
  401e66:	e9d3 0100 	ldrd	r0, r1, [r3]
  401e6a:	47b0      	blx	r6
	if (!cfg_desc) {
  401e6c:	9a01      	ldr	r2, [sp, #4]
  401e6e:	2800      	cmp	r0, #0
  401e70:	d1c2      	bne.n	401df8 <usbdc_cb_ctl_req+0x2ec>
  401e72:	e7b9      	b.n	401de8 <usbdc_cb_ctl_req+0x2dc>
	bool     need_zlp = !(length & (usbdc.ctrl_size - 1));
  401e74:	4a2f      	ldr	r2, [pc, #188]	; (401f34 <usbdc_cb_ctl_req+0x428>)
	str_desc = usb_find_str_desc(usbdc.desces.ls_fs->sod, usbdc.desces.ls_fs->eod, index);
  401e76:	4b32      	ldr	r3, [pc, #200]	; (401f40 <usbdc_cb_ctl_req+0x434>)
  401e78:	6810      	ldr	r0, [r2, #0]
	bool     need_zlp = !(length & (usbdc.ctrl_size - 1));
  401e7a:	f892 7020 	ldrb.w	r7, [r2, #32]
	str_desc = usb_find_str_desc(usbdc.desces.ls_fs->sod, usbdc.desces.ls_fs->eod, index);
  401e7e:	b2f2      	uxtb	r2, r6
	uint16_t length   = req->wLength;
  401e80:	88e4      	ldrh	r4, [r4, #6]
	str_desc = usb_find_str_desc(usbdc.desces.ls_fs->sod, usbdc.desces.ls_fs->eod, index);
  401e82:	e9d0 0100 	ldrd	r0, r1, [r0]
  401e86:	4798      	blx	r3
	if (NULL == str_desc) {
  401e88:	4601      	mov	r1, r0
  401e8a:	2800      	cmp	r0, #0
  401e8c:	f43f ae50 	beq.w	401b30 <usbdc_cb_ctl_req+0x24>
	if (length <= str_desc[0]) {
  401e90:	7802      	ldrb	r2, [r0, #0]
  401e92:	4294      	cmp	r4, r2
  401e94:	d907      	bls.n	401ea6 <usbdc_cb_ctl_req+0x39a>
	bool     need_zlp = !(length & (usbdc.ctrl_size - 1));
  401e96:	1e7b      	subs	r3, r7, #1
  401e98:	4223      	tst	r3, r4
  401e9a:	4614      	mov	r4, r2
  401e9c:	bf0c      	ite	eq
  401e9e:	2301      	moveq	r3, #1
  401ea0:	2300      	movne	r3, #0
	if (ERR_NONE != usbdc_xfer(ep, str_desc, length, need_zlp)) {
  401ea2:	4622      	mov	r2, r4
  401ea4:	e66c      	b.n	401b80 <usbdc_cb_ctl_req+0x74>
		need_zlp = false;
  401ea6:	2300      	movs	r3, #0
  401ea8:	e7fb      	b.n	401ea2 <usbdc_cb_ctl_req+0x396>
		*(uint8_t *)usbdc.ctrl_buf = usbdc.cfg_value;
  401eaa:	4922      	ldr	r1, [pc, #136]	; (401f34 <usbdc_cb_ctl_req+0x428>)
  401eac:	698b      	ldr	r3, [r1, #24]
  401eae:	7fca      	ldrb	r2, [r1, #31]
  401eb0:	701a      	strb	r2, [r3, #0]
		usbdc_xfer(ep, usbdc.ctrl_buf, 1, false);
  401eb2:	2300      	movs	r3, #0
  401eb4:	2201      	movs	r2, #1
  401eb6:	6989      	ldr	r1, [r1, #24]
  401eb8:	e6bb      	b.n	401c32 <usbdc_cb_ctl_req+0x126>
	switch (req->bmRequestType & USB_REQT_RECIP_MASK) {
  401eba:	f003 011f 	and.w	r1, r3, #31
  401ebe:	f013 031e 	ands.w	r3, r3, #30
  401ec2:	d00b      	beq.n	401edc <usbdc_cb_ctl_req+0x3d0>
  401ec4:	2902      	cmp	r1, #2
  401ec6:	f47f ae33 	bne.w	401b30 <usbdc_cb_ctl_req+0x24>
		st = usb_d_ep_halt(req->wIndex & 0xFF, USB_EP_HALT_GET);
  401eca:	88a0      	ldrh	r0, [r4, #4]
  401ecc:	4b1d      	ldr	r3, [pc, #116]	; (401f44 <usbdc_cb_ctl_req+0x438>)
  401ece:	b2c0      	uxtb	r0, r0
  401ed0:	4798      	blx	r3
		if (st < 0) {
  401ed2:	1e03      	subs	r3, r0, #0
  401ed4:	f6ff ae2c 	blt.w	401b30 <usbdc_cb_ctl_req+0x24>
		st = st & 0x1;
  401ed8:	f003 0301 	and.w	r3, r3, #1
	memcpy(usbdc.ctrl_buf, &st, 2);
  401edc:	4915      	ldr	r1, [pc, #84]	; (401f34 <usbdc_cb_ctl_req+0x428>)
  401ede:	698a      	ldr	r2, [r1, #24]
  401ee0:	8013      	strh	r3, [r2, #0]
	usbdc_xfer(ep, usbdc.ctrl_buf, 2, false);
  401ee2:	2300      	movs	r3, #0
  401ee4:	2202      	movs	r2, #2
  401ee6:	e7e6      	b.n	401eb6 <usbdc_cb_ctl_req+0x3aa>
	if (!(usbdc.ifc_alt_map & (1 << req->wIndex))) {
  401ee8:	4912      	ldr	r1, [pc, #72]	; (401f34 <usbdc_cb_ctl_req+0x428>)
  401eea:	88a2      	ldrh	r2, [r4, #4]
  401eec:	f891 3021 	ldrb.w	r3, [r1, #33]	; 0x21
  401ef0:	460e      	mov	r6, r1
  401ef2:	4113      	asrs	r3, r2
  401ef4:	f013 0301 	ands.w	r3, r3, #1
  401ef8:	d00c      	beq.n	401f14 <usbdc_cb_ctl_req+0x408>
	struct usbdf_driver *func = (struct usbdf_driver *)usbdc.func_list.head;
  401efa:	694d      	ldr	r5, [r1, #20]
	while (NULL != func) {
  401efc:	2d00      	cmp	r5, #0
  401efe:	f43f ae17 	beq.w	401b30 <usbdc_cb_ctl_req+0x24>
		if (0 > (rc = func->ctrl(func, USBDF_GET_IFACE, req))) {
  401f02:	686b      	ldr	r3, [r5, #4]
  401f04:	4622      	mov	r2, r4
  401f06:	2102      	movs	r1, #2
  401f08:	4628      	mov	r0, r5
  401f0a:	4798      	blx	r3
  401f0c:	2800      	cmp	r0, #0
  401f0e:	da06      	bge.n	401f1e <usbdc_cb_ctl_req+0x412>
			func = func->next;
  401f10:	682d      	ldr	r5, [r5, #0]
  401f12:	e7f3      	b.n	401efc <usbdc_cb_ctl_req+0x3f0>
		usbdc.ctrl_buf[0] = 0;
  401f14:	698a      	ldr	r2, [r1, #24]
  401f16:	7013      	strb	r3, [r2, #0]
		usbdc_xfer(0, usbdc.ctrl_buf, 1, false);
  401f18:	2201      	movs	r2, #1
  401f1a:	6989      	ldr	r1, [r1, #24]
  401f1c:	e6ef      	b.n	401cfe <usbdc_cb_ctl_req+0x1f2>
			usbdc.ctrl_buf[0] = (uint8_t)rc;
  401f1e:	69b3      	ldr	r3, [r6, #24]
			usbdc_xfer(0, usbdc.ctrl_buf, 1, false);
  401f20:	2201      	movs	r2, #1
			usbdc.ctrl_buf[0] = (uint8_t)rc;
  401f22:	7018      	strb	r0, [r3, #0]
			usbdc_xfer(0, usbdc.ctrl_buf, 1, false);
  401f24:	2300      	movs	r3, #0
  401f26:	69b1      	ldr	r1, [r6, #24]
  401f28:	e6e9      	b.n	401cfe <usbdc_cb_ctl_req+0x1f2>
  401f2a:	bf00      	nop
  401f2c:	004016f9 	.word	0x004016f9
  401f30:	004013fd 	.word	0x004013fd
  401f34:	204004d0 	.word	0x204004d0
  401f38:	004013c5 	.word	0x004013c5
  401f3c:	00401439 	.word	0x00401439
  401f40:	00401475 	.word	0x00401475
  401f44:	004018c1 	.word	0x004018c1

00401f48 <usbdc_register_handler>:
/**
 * \brief Register the handler
 */
void usbdc_register_handler(enum usbdc_handler_type type, const struct usbdc_handler *h)
{
	switch (type) {
  401f48:	2801      	cmp	r0, #1
  401f4a:	d005      	beq.n	401f58 <usbdc_register_handler+0x10>
  401f4c:	2802      	cmp	r0, #2
  401f4e:	d005      	beq.n	401f5c <usbdc_register_handler+0x14>
  401f50:	b930      	cbnz	r0, 401f60 <usbdc_register_handler+0x18>
	case USBDC_HDL_SOF:
		list_insert_at_end(&usbdc.handlers.sof_list, (void *)h);
  401f52:	4804      	ldr	r0, [pc, #16]	; (401f64 <usbdc_register_handler+0x1c>)
		break;
	case USBDC_HDL_REQ:
		list_insert_at_end(&usbdc.handlers.req_list, (void *)h);
		break;
	case USBDC_HDL_CHANGE:
		list_insert_at_end(&usbdc.handlers.change_list, (void *)h);
  401f54:	4b04      	ldr	r3, [pc, #16]	; (401f68 <usbdc_register_handler+0x20>)
  401f56:	4718      	bx	r3
		list_insert_at_end(&usbdc.handlers.req_list, (void *)h);
  401f58:	4804      	ldr	r0, [pc, #16]	; (401f6c <usbdc_register_handler+0x24>)
  401f5a:	e7fb      	b.n	401f54 <usbdc_register_handler+0xc>
		list_insert_at_end(&usbdc.handlers.change_list, (void *)h);
  401f5c:	4804      	ldr	r0, [pc, #16]	; (401f70 <usbdc_register_handler+0x28>)
  401f5e:	e7f9      	b.n	401f54 <usbdc_register_handler+0xc>
		break;
	default:
		break;
	}
}
  401f60:	4770      	bx	lr
  401f62:	bf00      	nop
  401f64:	204004d8 	.word	0x204004d8
  401f68:	004011d9 	.word	0x004011d9
  401f6c:	204004dc 	.word	0x204004dc
  401f70:	204004e0 	.word	0x204004e0

00401f74 <usbdc_init>:

/**
 * \brief Initialize the USB device core driver
 */
int32_t usbdc_init(uint8_t *ctrl_buf)
{
  401f74:	b538      	push	{r3, r4, r5, lr}
	ASSERT(ctrl_buf);
  401f76:	4604      	mov	r4, r0
  401f78:	3800      	subs	r0, #0
  401f7a:	f240 3255 	movw	r2, #853	; 0x355
  401f7e:	490c      	ldr	r1, [pc, #48]	; (401fb0 <usbdc_init+0x3c>)
  401f80:	bf18      	it	ne
  401f82:	2001      	movne	r0, #1
  401f84:	4b0b      	ldr	r3, [pc, #44]	; (401fb4 <usbdc_init+0x40>)
  401f86:	4798      	blx	r3

	int32_t rc;

	rc = usb_d_init();
  401f88:	4b0b      	ldr	r3, [pc, #44]	; (401fb8 <usbdc_init+0x44>)
  401f8a:	4798      	blx	r3
	if (rc < 0) {
  401f8c:	2800      	cmp	r0, #0
  401f8e:	db0e      	blt.n	401fae <usbdc_init+0x3a>
		return rc;
	}

	memset(&usbdc, 0, sizeof(usbdc));
  401f90:	4b0a      	ldr	r3, [pc, #40]	; (401fbc <usbdc_init+0x48>)
  401f92:	2224      	movs	r2, #36	; 0x24
  401f94:	2100      	movs	r1, #0
  401f96:	4d0a      	ldr	r5, [pc, #40]	; (401fc0 <usbdc_init+0x4c>)
  401f98:	4618      	mov	r0, r3
  401f9a:	47a8      	blx	r5
	usbdc.ctrl_buf = ctrl_buf;
	usb_d_register_callback(USB_D_CB_SOF, (FUNC_PTR)usbd_sof_cb);
  401f9c:	4909      	ldr	r1, [pc, #36]	; (401fc4 <usbdc_init+0x50>)
	usbdc.ctrl_buf = ctrl_buf;
  401f9e:	6184      	str	r4, [r0, #24]
	usb_d_register_callback(USB_D_CB_SOF, (FUNC_PTR)usbd_sof_cb);
  401fa0:	2000      	movs	r0, #0
  401fa2:	4c09      	ldr	r4, [pc, #36]	; (401fc8 <usbdc_init+0x54>)
  401fa4:	47a0      	blx	r4
	usb_d_register_callback(USB_D_CB_EVENT, (FUNC_PTR)usbd_event_cb);
  401fa6:	2001      	movs	r0, #1
  401fa8:	4908      	ldr	r1, [pc, #32]	; (401fcc <usbdc_init+0x58>)
  401faa:	47a0      	blx	r4

	return 0;
  401fac:	2000      	movs	r0, #0
}
  401fae:	bd38      	pop	{r3, r4, r5, pc}
  401fb0:	0040216d 	.word	0x0040216d
  401fb4:	00401219 	.word	0x00401219
  401fb8:	00401679 	.word	0x00401679
  401fbc:	204004d0 	.word	0x204004d0
  401fc0:	00402119 	.word	0x00402119
  401fc4:	004019f9 	.word	0x004019f9
  401fc8:	004016e1 	.word	0x004016e1
  401fcc:	00401ad5 	.word	0x00401ad5

00401fd0 <usbdc_register_function>:
 * \brief Register/unregister function support of a USB device function
 *
 * Must be invoked when USB device is stopped.
 */
void usbdc_register_function(struct usbdf_driver *func)
{
  401fd0:	4601      	mov	r1, r0
	list_insert_at_end(&usbdc.func_list, func);
  401fd2:	4b01      	ldr	r3, [pc, #4]	; (401fd8 <usbdc_register_function+0x8>)
  401fd4:	4801      	ldr	r0, [pc, #4]	; (401fdc <usbdc_register_function+0xc>)
  401fd6:	4718      	bx	r3
  401fd8:	004011d9 	.word	0x004011d9
  401fdc:	204004e4 	.word	0x204004e4

00401fe0 <usbdc_start>:
/**
 * \brief Start the USB device driver with specific descriptors set
 */
int32_t usbdc_start(struct usbd_descriptors *desces)
{
	if (usbdc.state >= USBD_S_POWER) {
  401fe0:	4b0c      	ldr	r3, [pc, #48]	; (402014 <usbdc_start+0x34>)
{
  401fe2:	b510      	push	{r4, lr}
	if (usbdc.state >= USBD_S_POWER) {
  401fe4:	7f9c      	ldrb	r4, [r3, #30]
  401fe6:	b974      	cbnz	r4, 402006 <usbdc_start+0x26>
		return ERR_BUSY;
	}

	if (desces) {
  401fe8:	b180      	cbz	r0, 40200c <usbdc_start+0x2c>
		usbdc.desces.ls_fs = desces;
#if CONF_USBD_HS_SP
		usbdc.desces.hs = &desces[1];
  401fea:	f100 0208 	add.w	r2, r0, #8
		usbdc.desces.ls_fs = desces;
  401fee:	6018      	str	r0, [r3, #0]
		usbdc.desces.hs = &desces[1];
  401ff0:	605a      	str	r2, [r3, #4]
#endif
	} else {
		return ERR_BAD_DATA;
	}

	usbdc.ctrl_size = desces->sod[7];
  401ff2:	6802      	ldr	r2, [r0, #0]
  401ff4:	79d2      	ldrb	r2, [r2, #7]
  401ff6:	f883 2020 	strb.w	r2, [r3, #32]
	usbdc.state     = USBD_S_POWER;
  401ffa:	2201      	movs	r2, #1
  401ffc:	779a      	strb	r2, [r3, #30]
	usb_d_enable();
  401ffe:	4b06      	ldr	r3, [pc, #24]	; (402018 <usbdc_start+0x38>)
  402000:	4798      	blx	r3
	return ERR_NONE;
  402002:	4620      	mov	r0, r4
}
  402004:	bd10      	pop	{r4, pc}
		return ERR_BUSY;
  402006:	f06f 0003 	mvn.w	r0, #3
  40200a:	e7fb      	b.n	402004 <usbdc_start+0x24>
		return ERR_BAD_DATA;
  40200c:	f06f 0008 	mvn.w	r0, #8
  402010:	e7f8      	b.n	402004 <usbdc_start+0x24>
  402012:	bf00      	nop
  402014:	204004d0 	.word	0x204004d0
  402018:	004016e9 	.word	0x004016e9

0040201c <usbdc_attach>:
/**
 * \brief Attach the USB device to host
 */
void usbdc_attach(void)
{
	usb_d_attach();
  40201c:	4b00      	ldr	r3, [pc, #0]	; (402020 <usbdc_attach+0x4>)
  40201e:	4718      	bx	r3
  402020:	004016f1 	.word	0x004016f1

00402024 <usbdc_get_ctrl_buffer>:
 * \brief Return USB Device endpoint0 buffer
 */
uint8_t *usbdc_get_ctrl_buffer(void)
{
	return usbdc.ctrl_buf;
}
  402024:	4b01      	ldr	r3, [pc, #4]	; (40202c <usbdc_get_ctrl_buffer+0x8>)
  402026:	6998      	ldr	r0, [r3, #24]
  402028:	4770      	bx	lr
  40202a:	bf00      	nop
  40202c:	204004d0 	.word	0x204004d0

00402030 <usbdc_get_state>:
/**
 * \brief Return current USB state
 */
uint8_t usbdc_get_state(void)
{
	if (usbdc.state & USBD_S_SUSPEND) {
  402030:	4b03      	ldr	r3, [pc, #12]	; (402040 <usbdc_get_state+0x10>)
  402032:	7f98      	ldrb	r0, [r3, #30]
  402034:	f010 0f10 	tst.w	r0, #16
		return USBD_S_SUSPEND;
	}
	return usbdc.state;
}
  402038:	bf18      	it	ne
  40203a:	2010      	movne	r0, #16
  40203c:	4770      	bx	lr
  40203e:	bf00      	nop
  402040:	204004d0 	.word	0x204004d0

00402044 <USB_DEVICE_INSTANCE_CLOCK_init>:
	tmp = ((Pmc *)hw)->PMC_PCSR1;
  402044:	4b04      	ldr	r3, [pc, #16]	; (402058 <USB_DEVICE_INSTANCE_CLOCK_init+0x14>)
  402046:	f8d3 2108 	ldr.w	r2, [r3, #264]	; 0x108
		if (!hri_pmc_get_PCSR0_reg(PMC, (1 << periph_id))) {
			hri_pmc_set_PCSR0_reg(PMC, (1 << periph_id));
		}
	} else if (periph_id < 64) {
		periph_id -= 32;
		if (!hri_pmc_get_PCSR1_reg(PMC, (1 << periph_id))) {
  40204a:	0752      	lsls	r2, r2, #29
  40204c:	d402      	bmi.n	402054 <USB_DEVICE_INSTANCE_CLOCK_init+0x10>
	((Pmc *)hw)->PMC_PCER1 = mask;
  40204e:	2204      	movs	r2, #4
  402050:	f8c3 2100 	str.w	r2, [r3, #256]	; 0x100
#endif

void USB_DEVICE_INSTANCE_CLOCK_init(void)
{
	_pmc_enable_periph_clock(ID_USBHS);
}
  402054:	4770      	bx	lr
  402056:	bf00      	nop
  402058:	400e0600 	.word	0x400e0600

0040205c <USB_DEVICE_INSTANCE_init>:

void USB_DEVICE_INSTANCE_init(void)
{
	USB_DEVICE_INSTANCE_CLOCK_init();
  40205c:	4b03      	ldr	r3, [pc, #12]	; (40206c <USB_DEVICE_INSTANCE_init+0x10>)
{
  40205e:	b510      	push	{r4, lr}
	USB_DEVICE_INSTANCE_CLOCK_init();
  402060:	4798      	blx	r3
	usb_d_init();
  402062:	4b03      	ldr	r3, [pc, #12]	; (402070 <USB_DEVICE_INSTANCE_init+0x14>)
}
  402064:	e8bd 4010 	ldmia.w	sp!, {r4, lr}
	usb_d_init();
  402068:	4718      	bx	r3
  40206a:	bf00      	nop
  40206c:	00402045 	.word	0x00402045
  402070:	00401679 	.word	0x00401679

00402074 <system_init>:
 * Currently the following initialization functions are supported:
 *  - System clock initialization
 */
static inline void init_mcu(void)
{
	_init_chip();
  402074:	4b05      	ldr	r3, [pc, #20]	; (40208c <system_init+0x18>)
	CAN_0_PORT_init();
	can_async_init(&CAN_0, MCAN0);
}

void system_init(void)
{
  402076:	b510      	push	{r4, lr}
  402078:	4798      	blx	r3
}

static inline void hri_wdt_set_MR_WDDIS_bit(const void *const hw)
{
	WDT_CRITICAL_SECTION_ENTER();
	((Wdt *)hw)->WDT_MR |= WDT_MR_WDDIS;
  40207a:	4a05      	ldr	r2, [pc, #20]	; (402090 <system_init+0x1c>)
  40207c:	6853      	ldr	r3, [r2, #4]
  40207e:	f443 4300 	orr.w	r3, r3, #32768	; 0x8000
	//USART_0_init();

	USB_DEVICE_INSTANCE_init();

	//CAN_0_init();
}
  402082:	e8bd 4010 	ldmia.w	sp!, {r4, lr}
  402086:	6053      	str	r3, [r2, #4]
	USB_DEVICE_INSTANCE_init();
  402088:	4b02      	ldr	r3, [pc, #8]	; (402094 <system_init+0x20>)
  40208a:	4718      	bx	r3
  40208c:	00401179 	.word	0x00401179
  402090:	400e1850 	.word	0x400e1850
  402094:	0040205d 	.word	0x0040205d

00402098 <atomic_enter_critical>:
  __ASM volatile ("MRS %0, primask" : "=r" (result) :: "memory");
  402098:	f3ef 8310 	mrs	r3, PRIMASK
/**
 * \brief Disable interrupts, enter critical section
 */
void atomic_enter_critical(hal_atomic_t volatile *atomic)
{
	*atomic = __get_PRIMASK();
  40209c:	6003      	str	r3, [r0, #0]
  __ASM volatile ("cpsid i" : : : "memory");
  40209e:	b672      	cpsid	i
  \details Ensures the apparent order of the explicit memory operations before
           and after the instruction, without ensuring their completion.
 */
__STATIC_FORCEINLINE void __DMB(void)
{
  __ASM volatile ("dmb 0xF":::"memory");
  4020a0:	f3bf 8f5f 	dmb	sy
	__disable_irq();
	__DMB();
}
  4020a4:	4770      	bx	lr

004020a6 <atomic_leave_critical>:
  4020a6:	f3bf 8f5f 	dmb	sy
 * \brief Exit atomic section
 */
void atomic_leave_critical(hal_atomic_t volatile *atomic)
{
	__DMB();
	__set_PRIMASK(*atomic);
  4020aa:	6803      	ldr	r3, [r0, #0]
  __ASM volatile ("MSR primask, %0" : : "r" (priMask) : "memory");
  4020ac:	f383 8810 	msr	PRIMASK, r3
}
  4020b0:	4770      	bx	lr
	...

004020b4 <__libc_init_array>:
  4020b4:	b570      	push	{r4, r5, r6, lr}
  4020b6:	4d0d      	ldr	r5, [pc, #52]	; (4020ec <__libc_init_array+0x38>)
  4020b8:	4c0d      	ldr	r4, [pc, #52]	; (4020f0 <__libc_init_array+0x3c>)
  4020ba:	1b64      	subs	r4, r4, r5
  4020bc:	10a4      	asrs	r4, r4, #2
  4020be:	2600      	movs	r6, #0
  4020c0:	42a6      	cmp	r6, r4
  4020c2:	d109      	bne.n	4020d8 <__libc_init_array+0x24>
  4020c4:	4d0b      	ldr	r5, [pc, #44]	; (4020f4 <__libc_init_array+0x40>)
  4020c6:	4c0c      	ldr	r4, [pc, #48]	; (4020f8 <__libc_init_array+0x44>)
  4020c8:	f000 f85c 	bl	402184 <_init>
  4020cc:	1b64      	subs	r4, r4, r5
  4020ce:	10a4      	asrs	r4, r4, #2
  4020d0:	2600      	movs	r6, #0
  4020d2:	42a6      	cmp	r6, r4
  4020d4:	d105      	bne.n	4020e2 <__libc_init_array+0x2e>
  4020d6:	bd70      	pop	{r4, r5, r6, pc}
  4020d8:	f855 3b04 	ldr.w	r3, [r5], #4
  4020dc:	4798      	blx	r3
  4020de:	3601      	adds	r6, #1
  4020e0:	e7ee      	b.n	4020c0 <__libc_init_array+0xc>
  4020e2:	f855 3b04 	ldr.w	r3, [r5], #4
  4020e6:	4798      	blx	r3
  4020e8:	3601      	adds	r6, #1
  4020ea:	e7f2      	b.n	4020d2 <__libc_init_array+0x1e>
  4020ec:	00402190 	.word	0x00402190
  4020f0:	00402190 	.word	0x00402190
  4020f4:	00402190 	.word	0x00402190
  4020f8:	00402194 	.word	0x00402194

004020fc <memcpy>:
  4020fc:	440a      	add	r2, r1
  4020fe:	4291      	cmp	r1, r2
  402100:	f100 33ff 	add.w	r3, r0, #4294967295	; 0xffffffff
  402104:	d100      	bne.n	402108 <memcpy+0xc>
  402106:	4770      	bx	lr
  402108:	b510      	push	{r4, lr}
  40210a:	f811 4b01 	ldrb.w	r4, [r1], #1
  40210e:	f803 4f01 	strb.w	r4, [r3, #1]!
  402112:	4291      	cmp	r1, r2
  402114:	d1f9      	bne.n	40210a <memcpy+0xe>
  402116:	bd10      	pop	{r4, pc}

00402118 <memset>:
  402118:	4402      	add	r2, r0
  40211a:	4603      	mov	r3, r0
  40211c:	4293      	cmp	r3, r2
  40211e:	d100      	bne.n	402122 <memset+0xa>
  402120:	4770      	bx	lr
  402122:	f803 1b01 	strb.w	r1, [r3], #1
  402126:	e7f9      	b.n	40211c <memset+0x4>
  402128:	682f2e2e 	.word	0x682f2e2e
  40212c:	752f6c70 	.word	0x752f6c70
  402130:	73686273 	.word	0x73686273
  402134:	6c70682f 	.word	0x6c70682f
  402138:	6273755f 	.word	0x6273755f
  40213c:	632e7368 	.word	0x632e7368
  402140:	00          	.byte	0x00
  402141:	2e          	.byte	0x2e
  402142:	2f2e      	.short	0x2f2e
  402144:	2f6c6168 	.word	0x2f6c6168
  402148:	6c697475 	.word	0x6c697475
  40214c:	72732f73 	.word	0x72732f73
  402150:	74752f63 	.word	0x74752f63
  402154:	5f736c69 	.word	0x5f736c69
  402158:	7473696c 	.word	0x7473696c
  40215c:	632e      	.short	0x632e
	...

0040215f <CSWTCH.37>:
  40215f:	01ed 0101 0201                               .......

00402166 <CSWTCH.40>:
  402166:	00ed 0101 0201 2ef0 2f2e 7375 2f62 6564     ........./usb/de
  402176:	6976 6563 752f 6273 6364 632e 0000          vice/usbdc.c..

00402184 <_init>:
  402184:	b5f8      	push	{r3, r4, r5, r6, r7, lr}
  402186:	bf00      	nop
  402188:	bcf8      	pop	{r3, r4, r5, r6, r7}
  40218a:	bc08      	pop	{r3}
  40218c:	469e      	mov	lr, r3
  40218e:	4770      	bx	lr

00402190 <__init_array_start>:
  402190:	0040018d 	.word	0x0040018d

00402194 <_fini>:
  402194:	b5f8      	push	{r3, r4, r5, r6, r7, lr}
  402196:	bf00      	nop
  402198:	bcf8      	pop	{r3, r4, r5, r6, r7}
  40219a:	bc08      	pop	{r3}
  40219c:	469e      	mov	lr, r3
  40219e:	4770      	bx	lr

004021a0 <__fini_array_start>:
  4021a0:	00400169 	.word	0x00400169
